
CNN_MNIST.elf:     file format elf32-littlenios2
CNN_MNIST.elf
architecture: nios2:r1, flags 0x00000112:
EXEC_P, HAS_SYMS, D_PAGED
start address 0x08000020

Program Header:
    LOAD off    0x00001000 vaddr 0x08000000 paddr 0x08000000 align 2**12
         filesz 0x00000020 memsz 0x00000020 flags r-x
    LOAD off    0x00001020 vaddr 0x08000020 paddr 0x08000020 align 2**12
         filesz 0x000067d4 memsz 0x000067d4 flags r-x
    LOAD off    0x000077f4 vaddr 0x080067f4 paddr 0x080164fc align 2**12
         filesz 0x0000fd08 memsz 0x0000fd08 flags rw-
    LOAD off    0x00018204 vaddr 0x08026204 paddr 0x08026204 align 2**12
         filesz 0x00000000 memsz 0x000b9e3c flags rw-

Sections:
Idx Name          Size      VMA       LMA       File off  Algn
  0 .entry        00000020  08000000  08000000  00001000  2**5
                  CONTENTS, ALLOC, LOAD, READONLY, CODE
  1 .exceptions   00000000  08000020  08000020  000174fc  2**0
                  CONTENTS
  2 .text         000065ec  08000020  08000020  00001020  2**2
                  CONTENTS, ALLOC, LOAD, READONLY, CODE
  3 .rodata       000001e8  0800660c  0800660c  0000760c  2**2
                  CONTENTS, ALLOC, LOAD, READONLY, DATA
  4 .rwdata       0000fd08  080067f4  080164fc  000077f4  2**2
                  CONTENTS, ALLOC, LOAD, DATA, SMALL_DATA
  5 .bss          000ba116  08026204  08026204  00018204  2**2
                  ALLOC, SMALL_DATA
  6 .sdram_controller 00000000  080e0040  080e0040  000174fc  2**0
                  CONTENTS
  7 .comment      00000023  00000000  00000000  000174fc  2**0
                  CONTENTS, READONLY
  8 .debug_aranges 00000680  00000000  00000000  00017520  2**3
                  CONTENTS, READONLY, DEBUGGING
  9 .debug_info   0000a6fd  00000000  00000000  00017ba0  2**0
                  CONTENTS, READONLY, DEBUGGING
 10 .debug_abbrev 0000378a  00000000  00000000  0002229d  2**0
                  CONTENTS, READONLY, DEBUGGING
 11 .debug_line   0000753f  00000000  00000000  00025a27  2**0
                  CONTENTS, READONLY, DEBUGGING
 12 .debug_frame  00000d2c  00000000  00000000  0002cf68  2**2
                  CONTENTS, READONLY, DEBUGGING
 13 .debug_str    0000c76f  00000000  00000000  0002dc94  2**0
                  CONTENTS, READONLY, DEBUGGING
 14 .debug_loc    000083c9  00000000  00000000  0003a403  2**0
                  CONTENTS, READONLY, DEBUGGING
 15 .debug_alt_sim_info 00000020  00000000  00000000  000427cc  2**2
                  CONTENTS, READONLY, DEBUGGING
 16 .debug_ranges 00000af0  00000000  00000000  000427f0  2**3
                  CONTENTS, READONLY, DEBUGGING
 17 .debug_macro  000050b9  00000000  00000000  000432e0  2**0
                  CONTENTS, READONLY, DEBUGGING
 18 .thread_model 00000003  00000000  00000000  0004a351  2**0
                  CONTENTS, READONLY
 19 .cpu          00000005  00000000  00000000  0004a354  2**0
                  CONTENTS, READONLY
 20 .qsys         00000001  00000000  00000000  0004a359  2**0
                  CONTENTS, READONLY
 21 .simulation_enabled 00000001  00000000  00000000  0004a35a  2**0
                  CONTENTS, READONLY
 22 .sysid_hash   00000004  00000000  00000000  0004a35b  2**0
                  CONTENTS, READONLY
 23 .sysid_base   00000004  00000000  00000000  0004a35f  2**0
                  CONTENTS, READONLY
 24 .sysid_time   00000004  00000000  00000000  0004a363  2**0
                  CONTENTS, READONLY
 25 .stderr_dev   00000009  00000000  00000000  0004a367  2**0
                  CONTENTS, READONLY
 26 .stdin_dev    00000009  00000000  00000000  0004a370  2**0
                  CONTENTS, READONLY
 27 .stdout_dev   00000009  00000000  00000000  0004a379  2**0
                  CONTENTS, READONLY
 28 .sopc_system_name 00000006  00000000  00000000  0004a382  2**0
                  CONTENTS, READONLY
 29 .quartus_project_dir 0000000d  00000000  00000000  0004a388  2**0
                  CONTENTS, READONLY
 30 .jdi          0000380e  00000000  00000000  0004a395  2**0
                  CONTENTS, READONLY
 31 .sopcinfo     00053fce  00000000  00000000  0004dba3  2**0
                  CONTENTS, READONLY
SYMBOL TABLE:
08000000 l    d  .entry	00000000 .entry
08000020 l    d  .exceptions	00000000 .exceptions
08000020 l    d  .text	00000000 .text
0800660c l    d  .rodata	00000000 .rodata
080067f4 l    d  .rwdata	00000000 .rwdata
08026204 l    d  .bss	00000000 .bss
080e0040 l    d  .sdram_controller	00000000 .sdram_controller
00000000 l    d  .comment	00000000 .comment
00000000 l    d  .debug_aranges	00000000 .debug_aranges
00000000 l    d  .debug_info	00000000 .debug_info
00000000 l    d  .debug_abbrev	00000000 .debug_abbrev
00000000 l    d  .debug_line	00000000 .debug_line
00000000 l    d  .debug_frame	00000000 .debug_frame
00000000 l    d  .debug_str	00000000 .debug_str
00000000 l    d  .debug_loc	00000000 .debug_loc
00000000 l    d  .debug_alt_sim_info	00000000 .debug_alt_sim_info
00000000 l    d  .debug_ranges	00000000 .debug_ranges
00000000 l    d  .debug_macro	00000000 .debug_macro
00000000 l    df *ABS*	00000000 ../CNN_MNIST_bsp//obj/HAL/src/crt0.o
08000058 l       .text	00000000 alt_after_alt_main
00000000 l    df *ABS*	00000000 LCD1602_Qsys.c
00000000 l    df *ABS*	00000000 hello_world.c
00000000 l    df *ABS*	00000000 w_exp.c
00000000 l    df *ABS*	00000000 e_exp.c
080066c4 l     O .rodata	00000010 halF
080066b4 l     O .rodata	00000010 ln2HI
080066a4 l     O .rodata	00000010 ln2LO
00000000 l    df *ABS*	00000000 s_finite.c
00000000 l    df *ABS*	00000000 s_lib_ver.c
00000000 l    df *ABS*	00000000 s_matherr.c
00000000 l    df *ABS*	00000000 lib2-divmod.c
08002b8c l     F .text	0000006c udivmodsi4
00000000 l    df *ABS*	00000000 adddf3.c
00000000 l    df *ABS*	00000000 divdf3.c
00000000 l    df *ABS*	00000000 gedf2.c
00000000 l    df *ABS*	00000000 ledf2.c
00000000 l    df *ABS*	00000000 muldf3.c
00000000 l    df *ABS*	00000000 subdf3.c
00000000 l    df *ABS*	00000000 fixdfsi.c
00000000 l    df *ABS*	00000000 floatsidf.c
00000000 l    df *ABS*	00000000 libgcc2.c
00000000 l    df *ABS*	00000000 libgcc2.c
00000000 l    df *ABS*	00000000 errno.c
00000000 l    df *ABS*	00000000 impure.c
08016214 l     O .rwdata	000000e0 impure_data
00000000 l    df *ABS*	00000000 printf.c
00000000 l    df *ABS*	00000000 puts.c
00000000 l    df *ABS*	00000000 strlen.c
00000000 l    df *ABS*	00000000 vfprintf.c
080052d8 l     F .text	0000006c print_repeat
00000000 l    df *ABS*	00000000 fvwrite_small_dev.c
00000000 l    df *ABS*	00000000 writer.c
00000000 l    df *ABS*	00000000 int_errno.c
00000000 l    df *ABS*	00000000 alt_load.c
00000000 l    df *ABS*	00000000 alt_main.c
00000000 l    df *ABS*	00000000 alt_write.c
00000000 l    df *ABS*	00000000 alt_sys_init.c
080162f4 l     O .rwdata	0000002c jtag_uart
00000000 l    df *ABS*	00000000 altera_avalon_jtag_uart_fd.c
00000000 l    df *ABS*	00000000 altera_avalon_jtag_uart_read.c
00000000 l    df *ABS*	00000000 altera_avalon_jtag_uart_write.c
00000000 l    df *ABS*	00000000 alt_close.c
00000000 l    df *ABS*	00000000 alt_dcache_flush_all.c
00000000 l    df *ABS*	00000000 alt_dev.c
08005e7c l     F .text	00000008 alt_dev_null_write
00000000 l    df *ABS*	00000000 alt_dev_llist_insert.c
00000000 l    df *ABS*	00000000 alt_errno.c
00000000 l    df *ABS*	00000000 alt_icache_flush_all.c
00000000 l    df *ABS*	00000000 alt_io_redirect.c
08005f24 l     F .text	00000064 alt_open_fd
00000000 l    df *ABS*	00000000 alt_open.c
00000000 l    df *ABS*	00000000 alt_release_fd.c
00000000 l    df *ABS*	00000000 altera_nios2_gen2_irq.c
00000000 l    df *ABS*	00000000 alt_find_dev.c
00000000 l    df *ABS*	00000000 alt_find_file.c
00000000 l    df *ABS*	00000000 alt_get_fd.c
00000000 l    df *ABS*	00000000 alt_icache_flush.c
00000000 l    df *ABS*	00000000 exit.c
00000000 l    df *ABS*	00000000 memcmp.c
00000000 l    df *ABS*	00000000 __call_atexit.c
00000000 l    df *ABS*	00000000 alt_exit.c
08005b34 g     F .text	00000050 alt_main
08005228 g     F .text	00000080 _puts_r
080164fc g       *ABS*	00000000 __flash_rwdata_start
08000238 g     F .text	000000f4 Format_Conv1_W
080138e4 g     O .rwdata	00000a00 Fc2_W_raw
080051dc g     F .text	0000004c printf
08015b64 g     O .rwdata	00000691 Image_Mask
08006834 g     O .rwdata	00000020 Conv2_B
08026220 g     O .bss	00000050 Softmax
0800032c g     F .text	00000138 Format_Conv2_W
0800005c g     F .text	00000154 LCD_Disp
08006954 g     O .rwdata	00000050 Fc2_B
08003e20 g     F .text	000000e0 .hidden __gtdf2
080061ec g     F .text	00000008 altera_nios2_gen2_irq_init
08005190 g     F .text	00000010 __errno
080067f4 g     O .rwdata	00000040 Conv1_B
08000000 g     F .entry	0000001c __reset
08000020 g       *ABS*	00000000 __flash_exceptions_start
080001b0 g     F .text	00000044 LCD_Clear
080161f8 g     O .rwdata	0000000a str_ans
08026210 g     O .bss	00000004 errno
08000000 g       *ABS*	00000000 __alt_mem_sdram_controller
08026218 g     O .bss	00000004 alt_argv
0801e4c8 g       *ABS*	00000000 _gp
08026270 g     O .bss	00003100 Pool1_Image
08016320 g     O .rwdata	00000180 alt_fd_list
080061f4 g     F .text	0000007c alt_find_dev
0800505c g     F .text	000000d0 .hidden __floatsidf
08005f88 g     F .text	00000098 alt_io_redirect
08003f00 g     F .text	000000e0 .hidden __ltdf2
080052a8 g     F .text	00000014 puts
08005d00 g     F .text	00000074 altera_avalon_jtag_uart_read
080051a0 g     F .text	0000003c _printf_r
08002ca8 g     F .text	00000008 .hidden __udivsi3
08029370 g     O .bss	0000c400 Conv1_Image
08000cac g     F .text	000002d4 Conv2
080164c8 g     O .rwdata	00000004 pUser_LCD
080063b4 g     F .text	00000058 alt_icache_flush
080142e4 g     O .rwdata	00001880 Input_Image_raw
080164e4 g     O .rwdata	00000004 alt_max_fd
08035770 g     O .bss	00001880 sum_value
08002cb8 g     F .text	0000089c .hidden __adddf3
080164d8 g     O .rwdata	00000004 __fdlib_version
080164dc g     O .rwdata	00000004 _global_impure_ptr
080e0040 g       *ABS*	00000000 __bss_end
08002680 g     F .text	000004e8 __ieee754_exp
08036ff0 g     O .bss	00000240 Conv1_W
08001278 g     F .text	00000190 Fc1
080164a0 g     O .rwdata	00000028 alt_dev_null
08005e78 g     F .text	00000004 alt_dcache_flush_all
08004fd4 g     F .text	00000088 .hidden __fixdfsi
080164fc g       *ABS*	00000000 __ram_rwdata_end
080164e8 g     O .rwdata	00000008 alt_dev_list
08005b84 g     F .text	000000e4 write
08001188 g     F .text	000000f0 Flatten
080067f4 g       *ABS*	00000000 __ram_rodata_end
08003f00 g     F .text	000000e0 .hidden __ledf2
08002cb0 g     F .text	00000008 .hidden __umodsi3
08000668 g     F .text	00000094 CNN_MNIST_recognition
080e0040 g       *ABS*	00000000 end
080018f4 g     F .text	00000150 Reset_Screen
08000f80 g     F .text	00000208 MaxPool2
10000000 g       *ABS*	00000000 __alt_stack_pointer
080164cc g     O .rwdata	00000004 pUser_SEG8
0800512c g     F .text	00000064 .hidden __clzsi2
08005d74 g     F .text	00000038 altera_avalon_jtag_uart_write
08037230 g     O .bss	00001880 sum_n
08005344 g     F .text	00000544 ___vfprintf_internal_r
0800645c g     F .text	0000019c __call_exitprocs
08006854 g     O .rwdata	00000100 Fc1_B
08038ab0 g     O .bss	00000050 FC2_Image
08000020 g     F .text	0000003c _start
080006fc g     F .text	00000034 Load_All
08005c88 g     F .text	00000028 alt_sys_init
080067f4 g       *ABS*	00000000 __ram_rwdata_start
0800660c g       *ABS*	00000000 __ram_rodata_start
08005cb0 g     F .text	00000028 altera_avalon_jtag_uart_read_fd
0800633c g     F .text	00000078 alt_get_fd
080009c0 g     F .text	000000f8 max
0800642c g     F .text	00000030 memcmp
080e0040 g       *ABS*	00000000 __alt_stack_base
08001a44 g     F .text	00000870 Recognition
08026204 g     O .bss	00000004 subop
08003554 g     F .text	000008cc .hidden __divdf3
08003fe0 g     F .text	00000724 .hidden __muldf3
08038b00 g     O .bss	00001880 Input_Image
08006270 g     F .text	000000cc alt_find_file
08005e84 g     F .text	00000080 alt_dev_llist_insert
08016204 g     O .rwdata	0000000e str_pro
080058ac g     F .text	000000ac __sfvwrite_small_dev
08026204 g       *ABS*	00000000 __bss_start
080022b4 g     F .text	0000023c main
0803a380 g     O .bss	00000900 Conv2_W
08026214 g     O .bss	00000004 alt_envp
08026208 g     O .bss	00000001 recognize_flag
08005cd8 g     F .text	00000028 altera_avalon_jtag_uart_write_fd
080005bc g     F .text	000000ac Format_InputImage
080074e4 g     O .rwdata	0000c400 Fc1_W_raw
08002b84 g     F .text	00000008 matherr
080164f8 g     O .rwdata	00000004 alt_errno
080069a4 g     O .rwdata	00000240 Conv1_W_raw
0803ac80 g     O .bss	00000620 Flat_Image
080024f0 g     F .text	00000190 exp
08002bf8 g     F .text	00000054 .hidden __divsi3
08002b68 g     F .text	0000001c finite
0800660c g       *ABS*	00000000 __flash_rodata_start
08005c68 g     F .text	00000020 alt_irq_init
080061c8 g     F .text	00000024 alt_release_fd
0803b2a0 g     O .bss	00038400 Large_Digit
080066d4 g     O .rodata	00000100 .hidden __clz_tab
08006be4 g     O .rwdata	00000900 Conv2_W_raw
08005958 g     F .text	00000058 _write_r
080164d4 g     O .rwdata	00000004 pUser_LTM_Buf
080164e0 g     O .rwdata	00000004 _impure_ptr
0802621c g     O .bss	00000004 alt_argc
080736a0 g     O .bss	00000100 FC1_Image
080737a0 g     O .bss	0000c400 Fc1_W
080164f0 g     O .rwdata	00000008 alt_fs_list
0802620c g     O .bss	00000004 ans
08000020 g       *ABS*	00000000 __ram_exceptions_start
0807fba0 g     O .bss	0005dc00 Screen_Buffer
08001564 g     F .text	00000390 Get_Answer
080164fc g       *ABS*	00000000 _edata
080e0040 g       *ABS*	00000000 _end
08000464 g     F .text	000000ac Format_Fc1_W
08000020 g       *ABS*	00000000 __ram_exceptions_end
08000ab8 g     F .text	000001f4 MaxPool1
080dd7a0 g     O .bss	00000a00 Fc2_W
0800640c g     F .text	00000020 exit
080de1a0 g     O .bss	00001880 Conv2_Image
08002c4c g     F .text	0000005c .hidden __modsi3
10000000 g       *ABS*	00000000 __alt_data_end
080dfa20 g     O .bss	00000620 Pool2_Image
080065f8 g     F .text	00000014 _exit
080052bc g     F .text	0000001c strlen
08006020 g     F .text	000001a8 open
08003e20 g     F .text	000000e0 .hidden __gedf2
08000730 g     F .text	00000290 Conv1
08005f04 g     F .text	00000020 alt_icache_flush_all
080164d0 g     O .rwdata	00000004 pUser_LTM_ADC
08005888 g     F .text	00000024 __vfprintf_internal
08004704 g     F .text	000008d0 .hidden __subdf3
08001408 g     F .text	0000015c Fc2
08005dac g     F .text	000000cc close
08000510 g     F .text	000000ac Format_Fc2_W
080059b0 g     F .text	00000184 alt_load
080001f4 g     F .text	00000044 LCD_Reset
00000000  w      *UND*	00000000 free



Disassembly of section .entry:

08000000 <__reset>:
#if NIOS2_ICACHE_SIZE > 0 && defined(ALT_ALLOW_CODE_AT_RESET) && (!defined(ALT_SIM_OPTIMIZE) || defined(NIOS2_ECC_PRESENT))
    /* Assume the instruction cache size is always a power of two. */
#if NIOS2_ICACHE_SIZE > 0x8000
    movhi r2, %hi(NIOS2_ICACHE_SIZE)
#else
    movui r2, NIOS2_ICACHE_SIZE
 8000000:	00840014 	movui	r2,4096
#endif

0:
    initi r2
 8000004:	1001483a 	initi	r2
    addi r2, r2, -NIOS2_ICACHE_LINE_SIZE
 8000008:	10bff804 	addi	r2,r2,-32
    bgt r2, zero, 0b
 800000c:	00bffd16 	blt	zero,r2,8000004 <__alt_data_end+0xf8000004>
 * Jump to the _start entry point in the .text section if reset code
 * is allowed or if optimizing for RTL simulation.
 */
#if defined(ALT_ALLOW_CODE_AT_RESET) || defined(ALT_SIM_OPTIMIZE)
    /* Jump to the _start entry point in the .text section. */
    movhi r1, %hi(_start)
 8000010:	00420034 	movhi	at,2048
    ori r1, r1, %lo(_start)
 8000014:	08400814 	ori	at,at,32
    jmp r1
 8000018:	0800683a 	jmp	at
 800001c:	00000000 	call	0 <__alt_mem_sdram_controller-0x8000000>

Disassembly of section .text:

08000020 <_start>:

    /*
     * Now that the caches are initialized, set up the stack pointer and global pointer.
     * The values provided by the linker are assumed to be correctly aligned.
     */
    movhi sp, %hi(__alt_stack_pointer)
 8000020:	06c40034 	movhi	sp,4096
    ori sp, sp, %lo(__alt_stack_pointer)
 8000024:	dec00014 	ori	sp,sp,0
    movhi gp, %hi(_gp)
 8000028:	06820074 	movhi	gp,2049
    ori gp, gp, %lo(_gp)
 800002c:	d6b93214 	ori	gp,gp,58568
 */
#ifndef ALT_SIM_OPTIMIZE
    /* Log that the BSS is about to be cleared. */
    ALT_LOG_PUTS(alt_log_msg_bss)

    movhi r2, %hi(__bss_start)
 8000030:	008200b4 	movhi	r2,2050
    ori r2, r2, %lo(__bss_start)
 8000034:	10988114 	ori	r2,r2,25092

    movhi r3, %hi(__bss_end)
 8000038:	00c203b4 	movhi	r3,2062
    ori r3, r3, %lo(__bss_end)
 800003c:	18c01014 	ori	r3,r3,64

    beq r2, r3, 1f
 8000040:	10c00326 	beq	r2,r3,8000050 <_start+0x30>

0:
    stw zero, (r2)
 8000044:	10000015 	stw	zero,0(r2)
    addi r2, r2, 4
 8000048:	10800104 	addi	r2,r2,4
    bltu r2, r3, 0b
 800004c:	10fffd36 	bltu	r2,r3,8000044 <__alt_data_end+0xf8000044>
     * section aren't defined until alt_load() has been called).
     */
    mov   et, zero
#endif

    call alt_load
 8000050:	80059b00 	call	80059b0 <alt_load>

    /* Log that alt_main is about to be called. */
    ALT_LOG_PUTS(alt_log_msg_alt_main)

    /* Call the C entry point. It should never return. */
    call alt_main
 8000054:	8005b340 	call	8005b34 <alt_main>

08000058 <alt_after_alt_main>:

    /* Wait in infinite loop in case alt_main does return. */
alt_after_alt_main:
    br alt_after_alt_main
 8000058:	003fff06 	br	8000058 <__alt_data_end+0xf8000058>

0800005c <LCD_Disp>:
 *            *pData  ->输入显示缓存指针
 *            len     ->待显示字数，这里注意显示长度+位置之和不能超过LCD一行最大值15
 * 返回参数 ：   无
 */
void LCD_Disp(unsigned char Row, unsigned char position , unsigned char *pData , unsigned char len)
{
 800005c:	defff804 	addi	sp,sp,-32
 8000060:	df000715 	stw	fp,28(sp)
 8000064:	df000704 	addi	fp,sp,28
 8000068:	2807883a 	mov	r3,r5
 800006c:	e1bffe15 	stw	r6,-8(fp)
 8000070:	3805883a 	mov	r2,r7
 8000074:	e13ffc05 	stb	r4,-16(fp)
 8000078:	e0fffd05 	stb	r3,-12(fp)
 800007c:	e0bfff05 	stb	r2,-4(fp)
	unsigned char i;
	unsigned char busy;
	unsigned int j;
	unsigned char Row_Line;
	//判断写入行位置是否正确
	if(Row==1)
 8000080:	e0bffc03 	ldbu	r2,-16(fp)
 8000084:	10800058 	cmpnei	r2,r2,1
 8000088:	1000021e 	bne	r2,zero,8000094 <LCD_Disp+0x38>
		Row_Line=0x00;
 800008c:	e03ffb05 	stb	zero,-20(fp)
 8000090:	00000706 	br	80000b0 <LCD_Disp+0x54>
	else if(Row==2)
 8000094:	e0bffc03 	ldbu	r2,-16(fp)
 8000098:	10800098 	cmpnei	r2,r2,2
 800009c:	1000031e 	bne	r2,zero,80000ac <LCD_Disp+0x50>
	    Row_Line=0x40;
 80000a0:	00801004 	movi	r2,64
 80000a4:	e0bffb05 	stb	r2,-20(fp)
 80000a8:	00000106 	br	80000b0 <LCD_Disp+0x54>
	else
		Row_Line=0x00;
 80000ac:	e03ffb05 	stb	zero,-20(fp)

	//检查写入位置是否越界
	if(position<0)
		position=0;
	else if(position>15)
 80000b0:	e0bffd03 	ldbu	r2,-12(fp)
 80000b4:	10800430 	cmpltui	r2,r2,16
 80000b8:	1000021e 	bne	r2,zero,80000c4 <LCD_Disp+0x68>
		position=15;
 80000bc:	008003c4 	movi	r2,15
 80000c0:	e0bffd05 	stb	r2,-12(fp)
	//检查单行写入是否会超过最大显示个数
	if((len+position)>15)
 80000c4:	e0ffff03 	ldbu	r3,-4(fp)
 80000c8:	e0bffd03 	ldbu	r2,-12(fp)
 80000cc:	1885883a 	add	r2,r3,r2
 80000d0:	10800410 	cmplti	r2,r2,16
 80000d4:	1000041e 	bne	r2,zero,80000e8 <LCD_Disp+0x8c>
		len=15-position;
 80000d8:	e0bffd03 	ldbu	r2,-12(fp)
 80000dc:	00c003c4 	movi	r3,15
 80000e0:	1885c83a 	sub	r2,r3,r2
 80000e4:	e0bfff05 	stb	r2,-4(fp)
	//将待显示数据写入缓存数据
	for(i=0;i<len;i++)
 80000e8:	e03ff905 	stb	zero,-28(fp)
 80000ec:	00000f06 	br	800012c <LCD_Disp+0xd0>
	{
		*(pUser_LCD+i+1)=*(pData+i); //写入地址从1开始
 80000f0:	d0e00017 	ldw	r3,-32768(gp)
 80000f4:	e0bff903 	ldbu	r2,-28(fp)
 80000f8:	10800044 	addi	r2,r2,1
 80000fc:	1085883a 	add	r2,r2,r2
 8000100:	1085883a 	add	r2,r2,r2
 8000104:	1885883a 	add	r2,r3,r2
 8000108:	e0fff903 	ldbu	r3,-28(fp)
 800010c:	e13ffe17 	ldw	r4,-8(fp)
 8000110:	20c7883a 	add	r3,r4,r3
 8000114:	18c00003 	ldbu	r3,0(r3)
 8000118:	18c03fcc 	andi	r3,r3,255
 800011c:	10c00015 	stw	r3,0(r2)
		position=15;
	//检查单行写入是否会超过最大显示个数
	if((len+position)>15)
		len=15-position;
	//将待显示数据写入缓存数据
	for(i=0;i<len;i++)
 8000120:	e0bff903 	ldbu	r2,-28(fp)
 8000124:	10800044 	addi	r2,r2,1
 8000128:	e0bff905 	stb	r2,-28(fp)
 800012c:	e0fff903 	ldbu	r3,-28(fp)
 8000130:	e0bfff03 	ldbu	r2,-4(fp)
 8000134:	18bfee36 	bltu	r3,r2,80000f0 <__alt_data_end+0xf80000f0>
	{
		*(pUser_LCD+i+1)=*(pData+i); //写入地址从1开始
	}
	//检查写入模块当前是否忙
	do{
		busy=*(pUser_LCD) & 0xf ;
 8000138:	d0a00017 	ldw	r2,-32768(gp)
 800013c:	10800017 	ldw	r2,0(r2)
 8000140:	108003cc 	andi	r2,r2,15
 8000144:	e0bffb45 	stb	r2,-19(fp)
	  }
	while(busy!=5);
 8000148:	e0bffb43 	ldbu	r2,-19(fp)
 800014c:	10800158 	cmpnei	r2,r2,5
 8000150:	103ff91e 	bne	r2,zero,8000138 <__alt_data_end+0xf8000138>
    //写入使能指令
	*(pUser_LCD)=(position<<24)+(len<<16)+(Row_Line<<8)+0x33;
 8000154:	d0a00017 	ldw	r2,-32768(gp)
 8000158:	e0fffd03 	ldbu	r3,-12(fp)
 800015c:	1808963a 	slli	r4,r3,24
 8000160:	e0ffff03 	ldbu	r3,-4(fp)
 8000164:	1806943a 	slli	r3,r3,16
 8000168:	20c9883a 	add	r4,r4,r3
 800016c:	e0fffb03 	ldbu	r3,-20(fp)
 8000170:	1806923a 	slli	r3,r3,8
 8000174:	20c7883a 	add	r3,r4,r3
 8000178:	18c00cc4 	addi	r3,r3,51
 800017c:	10c00015 	stw	r3,0(r2)
	for(j = 0; j < 50000; j++);
 8000180:	e03ffa15 	stw	zero,-24(fp)
 8000184:	00000306 	br	8000194 <LCD_Disp+0x138>
 8000188:	e0bffa17 	ldw	r2,-24(fp)
 800018c:	10800044 	addi	r2,r2,1
 8000190:	e0bffa15 	stw	r2,-24(fp)
 8000194:	e0bffa17 	ldw	r2,-24(fp)
 8000198:	10b0d430 	cmpltui	r2,r2,50000
 800019c:	103ffa1e 	bne	r2,zero,8000188 <__alt_data_end+0xf8000188>
}
 80001a0:	e037883a 	mov	sp,fp
 80001a4:	df000017 	ldw	fp,0(sp)
 80001a8:	dec00104 	addi	sp,sp,4
 80001ac:	f800283a 	ret

080001b0 <LCD_Clear>:
 * 功能           :  将当前LCD1602上显示的内容清除
 * 输入参数 ：   无
 * 返回参数 ：   无
 */
void LCD_Clear()
{
 80001b0:	defffe04 	addi	sp,sp,-8
 80001b4:	df000115 	stw	fp,4(sp)
 80001b8:	df000104 	addi	fp,sp,4
	unsigned char busy;
	//检查写入模块当前是否忙
	do{
		busy=*(pUser_LCD) & 0xf ;
 80001bc:	d0a00017 	ldw	r2,-32768(gp)
 80001c0:	10800017 	ldw	r2,0(r2)
 80001c4:	108003cc 	andi	r2,r2,15
 80001c8:	e0bfff05 	stb	r2,-4(fp)
	  }
	while(busy!=5);
 80001cc:	e0bfff03 	ldbu	r2,-4(fp)
 80001d0:	10800158 	cmpnei	r2,r2,5
 80001d4:	103ff91e 	bne	r2,zero,80001bc <__alt_data_end+0xf80001bc>
	//写入使能指令
	*(pUser_LCD)=0x55;
 80001d8:	d0a00017 	ldw	r2,-32768(gp)
 80001dc:	00c01544 	movi	r3,85
 80001e0:	10c00015 	stw	r3,0(r2)
}
 80001e4:	e037883a 	mov	sp,fp
 80001e8:	df000017 	ldw	fp,0(sp)
 80001ec:	dec00104 	addi	sp,sp,4
 80001f0:	f800283a 	ret

080001f4 <LCD_Reset>:
 * 功能           :  复位LCD1602,显示内容全部清除
 * 输入参数 ：   无
 * 返回参数 ：   无
 */
void LCD_Reset()
{
 80001f4:	defffe04 	addi	sp,sp,-8
 80001f8:	df000115 	stw	fp,4(sp)
 80001fc:	df000104 	addi	fp,sp,4
	unsigned char busy;
	//检查写入模块当前是否忙
	do{
		busy=*(pUser_LCD) & 0xf ;
 8000200:	d0a00017 	ldw	r2,-32768(gp)
 8000204:	10800017 	ldw	r2,0(r2)
 8000208:	108003cc 	andi	r2,r2,15
 800020c:	e0bfff05 	stb	r2,-4(fp)
	  }
	while(busy!=5);
 8000210:	e0bfff03 	ldbu	r2,-4(fp)
 8000214:	10800158 	cmpnei	r2,r2,5
 8000218:	103ff91e 	bne	r2,zero,8000200 <__alt_data_end+0xf8000200>
	//写入使能指令
	*(pUser_LCD)=0xff;
 800021c:	d0a00017 	ldw	r2,-32768(gp)
 8000220:	00c03fc4 	movi	r3,255
 8000224:	10c00015 	stw	r3,0(r2)
}
 8000228:	e037883a 	mov	sp,fp
 800022c:	df000017 	ldw	fp,0(sp)
 8000230:	dec00104 	addi	sp,sp,4
 8000234:	f800283a 	ret

08000238 <Format_Conv1_W>:
	0.478332608938, 0.343070626259, -0.665887057781, -0.175977796316, 0.409941256046, 0.062993645668, 0.089100502431, 0.278431415558,
	0.328728526831, 0.433134436607, -0.677383780479, -0.284945189953, 0.261582046747, 0.153381928802, 0.544657826424, 0.473581314087,
	0.491747796535, 0.376624584198, -0.783044278622, -0.143371194601, 0.130911856890, 0.325317472219, 0.481452137232, 0.419771283865,
};

void Format_Conv1_W() {
 8000238:	defffc04 	addi	sp,sp,-16
 800023c:	df000315 	stw	fp,12(sp)
 8000240:	df000304 	addi	fp,sp,12
	int i, j, k;
	for (i = 0; i < CONV_CORE_DIM; i++)
 8000244:	e03ffd15 	stw	zero,-12(fp)
 8000248:	00003106 	br	8000310 <Format_Conv1_W+0xd8>
		for (j = 0; j < CONV_CORE_DIM; j++)
 800024c:	e03ffe15 	stw	zero,-8(fp)
 8000250:	00002906 	br	80002f8 <Format_Conv1_W+0xc0>
			for (k = 0; k < CONV1_OUT_DIM; k++)
 8000254:	e03fff15 	stw	zero,-4(fp)
 8000258:	00002106 	br	80002e0 <Format_Conv1_W+0xa8>
				Conv1_W[i][j][0][k] = Conv1_W_raw[i*CONV_CORE_DIM*CONV1_OUT_DIM + j * CONV1_OUT_DIM + k];
 800025c:	e0fffd17 	ldw	r3,-12(fp)
 8000260:	1805883a 	mov	r2,r3
 8000264:	1085883a 	add	r2,r2,r2
 8000268:	10c7883a 	add	r3,r2,r3
 800026c:	e0bffe17 	ldw	r2,-8(fp)
 8000270:	1885883a 	add	r2,r3,r2
 8000274:	100690fa 	slli	r3,r2,3
 8000278:	e0bfff17 	ldw	r2,-4(fp)
 800027c:	1887883a 	add	r3,r3,r2
 8000280:	00820034 	movhi	r2,2048
 8000284:	109a6904 	addi	r2,r2,27044
 8000288:	180690fa 	slli	r3,r3,3
 800028c:	10c9883a 	add	r4,r2,r3
 8000290:	20800017 	ldw	r2,0(r4)
 8000294:	20c00117 	ldw	r3,4(r4)
 8000298:	014200f4 	movhi	r5,2051
 800029c:	295bfc04 	addi	r5,r5,28656
 80002a0:	e1bffd17 	ldw	r6,-12(fp)
 80002a4:	3009883a 	mov	r4,r6
 80002a8:	2109883a 	add	r4,r4,r4
 80002ac:	2189883a 	add	r4,r4,r6
 80002b0:	e1bffe17 	ldw	r6,-8(fp)
 80002b4:	2189883a 	add	r4,r4,r6
 80002b8:	200c90fa 	slli	r6,r4,3
 80002bc:	e13fff17 	ldw	r4,-4(fp)
 80002c0:	3109883a 	add	r4,r6,r4
 80002c4:	200890fa 	slli	r4,r4,3
 80002c8:	2909883a 	add	r4,r5,r4
 80002cc:	20800015 	stw	r2,0(r4)
 80002d0:	20c00115 	stw	r3,4(r4)

void Format_Conv1_W() {
	int i, j, k;
	for (i = 0; i < CONV_CORE_DIM; i++)
		for (j = 0; j < CONV_CORE_DIM; j++)
			for (k = 0; k < CONV1_OUT_DIM; k++)
 80002d4:	e0bfff17 	ldw	r2,-4(fp)
 80002d8:	10800044 	addi	r2,r2,1
 80002dc:	e0bfff15 	stw	r2,-4(fp)
 80002e0:	e0bfff17 	ldw	r2,-4(fp)
 80002e4:	10800210 	cmplti	r2,r2,8
 80002e8:	103fdc1e 	bne	r2,zero,800025c <__alt_data_end+0xf800025c>
};

void Format_Conv1_W() {
	int i, j, k;
	for (i = 0; i < CONV_CORE_DIM; i++)
		for (j = 0; j < CONV_CORE_DIM; j++)
 80002ec:	e0bffe17 	ldw	r2,-8(fp)
 80002f0:	10800044 	addi	r2,r2,1
 80002f4:	e0bffe15 	stw	r2,-8(fp)
 80002f8:	e0bffe17 	ldw	r2,-8(fp)
 80002fc:	108000d0 	cmplti	r2,r2,3
 8000300:	103fd41e 	bne	r2,zero,8000254 <__alt_data_end+0xf8000254>
	0.491747796535, 0.376624584198, -0.783044278622, -0.143371194601, 0.130911856890, 0.325317472219, 0.481452137232, 0.419771283865,
};

void Format_Conv1_W() {
	int i, j, k;
	for (i = 0; i < CONV_CORE_DIM; i++)
 8000304:	e0bffd17 	ldw	r2,-12(fp)
 8000308:	10800044 	addi	r2,r2,1
 800030c:	e0bffd15 	stw	r2,-12(fp)
 8000310:	e0bffd17 	ldw	r2,-12(fp)
 8000314:	108000d0 	cmplti	r2,r2,3
 8000318:	103fcc1e 	bne	r2,zero,800024c <__alt_data_end+0xf800024c>
		for (j = 0; j < CONV_CORE_DIM; j++)
			for (k = 0; k < CONV1_OUT_DIM; k++)
				Conv1_W[i][j][0][k] = Conv1_W_raw[i*CONV_CORE_DIM*CONV1_OUT_DIM + j * CONV1_OUT_DIM + k];
}
 800031c:	e037883a 	mov	sp,fp
 8000320:	df000017 	ldw	fp,0(sp)
 8000324:	dec00104 	addi	sp,sp,4
 8000328:	f800283a 	ret

0800032c <Format_Conv2_W>:
	0.205775201321, 0.198324441910, -0.313278973103, -0.108250141144,
	0.233034908772, -0.175800949335, -0.178829267621, 0.143294408917,
	0.295787453651, -0.002093323506, -0.431369543076, -0.094434492290,
};

void Format_Conv2_W() {
 800032c:	defffb04 	addi	sp,sp,-20
 8000330:	df000415 	stw	fp,16(sp)
 8000334:	df000404 	addi	fp,sp,16
	int i, j, k, l;
	for (i = 0; i < CONV_CORE_DIM; i++)
 8000338:	e03ffc15 	stw	zero,-16(fp)
 800033c:	00004206 	br	8000448 <Format_Conv2_W+0x11c>
		for (j = 0; j < CONV_CORE_DIM; j++)
 8000340:	e03ffd15 	stw	zero,-12(fp)
 8000344:	00003a06 	br	8000430 <Format_Conv2_W+0x104>
			for (k = 0; k < CONV1_OUT_DIM; k++)
 8000348:	e03ffe15 	stw	zero,-8(fp)
 800034c:	00003206 	br	8000418 <Format_Conv2_W+0xec>
				for (l = 0; l < CONV2_OUT_DIM; l++)
 8000350:	e03fff15 	stw	zero,-4(fp)
 8000354:	00002a06 	br	8000400 <Format_Conv2_W+0xd4>
					Conv2_W[i][j][k][l] = Conv2_W_raw[i*CONV_CORE_DIM*CONV1_OUT_DIM*CONV2_OUT_DIM + j * CONV1_OUT_DIM*CONV2_OUT_DIM + k * CONV2_OUT_DIM + l];
 8000358:	e0fffc17 	ldw	r3,-16(fp)
 800035c:	1805883a 	mov	r2,r3
 8000360:	1085883a 	add	r2,r2,r2
 8000364:	10c7883a 	add	r3,r2,r3
 8000368:	e0bffd17 	ldw	r2,-12(fp)
 800036c:	1885883a 	add	r2,r3,r2
 8000370:	100690fa 	slli	r3,r2,3
 8000374:	e0bffe17 	ldw	r2,-8(fp)
 8000378:	1885883a 	add	r2,r3,r2
 800037c:	1085883a 	add	r2,r2,r2
 8000380:	1085883a 	add	r2,r2,r2
 8000384:	1007883a 	mov	r3,r2
 8000388:	e0bfff17 	ldw	r2,-4(fp)
 800038c:	1887883a 	add	r3,r3,r2
 8000390:	00820034 	movhi	r2,2048
 8000394:	109af904 	addi	r2,r2,27620
 8000398:	180690fa 	slli	r3,r3,3
 800039c:	10c9883a 	add	r4,r2,r3
 80003a0:	20800017 	ldw	r2,0(r4)
 80003a4:	20c00117 	ldw	r3,4(r4)
 80003a8:	01420134 	movhi	r5,2052
 80003ac:	2968e004 	addi	r5,r5,-23680
 80003b0:	e1bffc17 	ldw	r6,-16(fp)
 80003b4:	3009883a 	mov	r4,r6
 80003b8:	2109883a 	add	r4,r4,r4
 80003bc:	2189883a 	add	r4,r4,r6
 80003c0:	e1bffd17 	ldw	r6,-12(fp)
 80003c4:	2189883a 	add	r4,r4,r6
 80003c8:	200c90fa 	slli	r6,r4,3
 80003cc:	e13ffe17 	ldw	r4,-8(fp)
 80003d0:	3109883a 	add	r4,r6,r4
 80003d4:	2109883a 	add	r4,r4,r4
 80003d8:	210d883a 	add	r6,r4,r4
 80003dc:	e13fff17 	ldw	r4,-4(fp)
 80003e0:	3109883a 	add	r4,r6,r4
 80003e4:	200890fa 	slli	r4,r4,3
 80003e8:	2909883a 	add	r4,r5,r4
 80003ec:	20800015 	stw	r2,0(r4)
 80003f0:	20c00115 	stw	r3,4(r4)
void Format_Conv2_W() {
	int i, j, k, l;
	for (i = 0; i < CONV_CORE_DIM; i++)
		for (j = 0; j < CONV_CORE_DIM; j++)
			for (k = 0; k < CONV1_OUT_DIM; k++)
				for (l = 0; l < CONV2_OUT_DIM; l++)
 80003f4:	e0bfff17 	ldw	r2,-4(fp)
 80003f8:	10800044 	addi	r2,r2,1
 80003fc:	e0bfff15 	stw	r2,-4(fp)
 8000400:	e0bfff17 	ldw	r2,-4(fp)
 8000404:	10800110 	cmplti	r2,r2,4
 8000408:	103fd31e 	bne	r2,zero,8000358 <__alt_data_end+0xf8000358>

void Format_Conv2_W() {
	int i, j, k, l;
	for (i = 0; i < CONV_CORE_DIM; i++)
		for (j = 0; j < CONV_CORE_DIM; j++)
			for (k = 0; k < CONV1_OUT_DIM; k++)
 800040c:	e0bffe17 	ldw	r2,-8(fp)
 8000410:	10800044 	addi	r2,r2,1
 8000414:	e0bffe15 	stw	r2,-8(fp)
 8000418:	e0bffe17 	ldw	r2,-8(fp)
 800041c:	10800210 	cmplti	r2,r2,8
 8000420:	103fcb1e 	bne	r2,zero,8000350 <__alt_data_end+0xf8000350>
};

void Format_Conv2_W() {
	int i, j, k, l;
	for (i = 0; i < CONV_CORE_DIM; i++)
		for (j = 0; j < CONV_CORE_DIM; j++)
 8000424:	e0bffd17 	ldw	r2,-12(fp)
 8000428:	10800044 	addi	r2,r2,1
 800042c:	e0bffd15 	stw	r2,-12(fp)
 8000430:	e0bffd17 	ldw	r2,-12(fp)
 8000434:	108000d0 	cmplti	r2,r2,3
 8000438:	103fc31e 	bne	r2,zero,8000348 <__alt_data_end+0xf8000348>
	0.295787453651, -0.002093323506, -0.431369543076, -0.094434492290,
};

void Format_Conv2_W() {
	int i, j, k, l;
	for (i = 0; i < CONV_CORE_DIM; i++)
 800043c:	e0bffc17 	ldw	r2,-16(fp)
 8000440:	10800044 	addi	r2,r2,1
 8000444:	e0bffc15 	stw	r2,-16(fp)
 8000448:	e0bffc17 	ldw	r2,-16(fp)
 800044c:	108000d0 	cmplti	r2,r2,3
 8000450:	103fbb1e 	bne	r2,zero,8000340 <__alt_data_end+0xf8000340>
		for (j = 0; j < CONV_CORE_DIM; j++)
			for (k = 0; k < CONV1_OUT_DIM; k++)
				for (l = 0; l < CONV2_OUT_DIM; l++)
					Conv2_W[i][j][k][l] = Conv2_W_raw[i*CONV_CORE_DIM*CONV1_OUT_DIM*CONV2_OUT_DIM + j * CONV1_OUT_DIM*CONV2_OUT_DIM + k * CONV2_OUT_DIM + l];
}
 8000454:	e037883a 	mov	sp,fp
 8000458:	df000017 	ldw	fp,0(sp)
 800045c:	dec00104 	addi	sp,sp,4
 8000460:	f800283a 	ret

08000464 <Format_Fc1_W>:
	0.127178445458, 0.044816862792, -0.014662570320, -0.064520232379, -0.235376983881, 0.078899003565, -0.015371254645, 0.138617739081, -0.227005228400, -0.003924244549, -0.022568983957, 0.037855725735, -0.120621822774, -0.006319903303, 0.129499390721, 0.180929854512, -0.074028782547, 0.022562483326, 0.063590675592, -0.155227124691, -0.140079766512, -0.041597578675, -0.189778044820, -0.091260723770, 0.098542943597, 0.152349621058, -0.106747485697, -0.132662191987, -0.102049447596, 0.016493020579, -0.111835010350, 0.002606458962,
	0.003723835107, 0.106709659100, 0.016573708504, -0.078420624137, -0.108134247363, -0.129132419825, -0.074413180351, -0.045664742589, -0.200606361032, -0.061181746423, 0.021886354312, -0.031660411507, 0.039107158780, -0.151700735092, 0.197057485580, -0.113156080246, 0.103587836027, -0.017466291785, -0.079787246883, 0.174250438809, 0.026776086539, 0.138518333435, 0.047010373324, -0.020349677652, -0.044780287892, -0.067977577448, -0.043312080204, -0.039684034884, 0.014988371171, -0.051982332021, 0.040609173477, 0.043775539845,
	-0.035542078316, -0.023575557396, 0.042091764510, 0.197612598538, 0.000820584886, -0.121303014457, -0.045213054866, -0.046414125711, 0.026339301839, -0.060650255531, -0.080773353577, 0.015300501138, 0.158764556050, -0.001424677204, 0.162710338831, -0.016992481425, -0.015217824839, 0.016301445663, -0.047071058303, -0.014848603867, 0.050834346563, 0.066649317741, 0.160343617201, -0.034037679434, 0.037955723703, -0.042440604419, 0.045096464455, 0.071097336709, -0.084702648222, -0.073139488697, -0.005728538614, 0.055165097117,
};

void Format_Fc1_W() {
 8000464:	defffd04 	addi	sp,sp,-12
 8000468:	df000215 	stw	fp,8(sp)
 800046c:	df000204 	addi	fp,sp,8
	int i, j;
	for (i = 0; i < (IMAGE_DIM / 4)*(IMAGE_DIM / 4)*CONV2_OUT_DIM; i++)
 8000470:	e03ffe15 	stw	zero,-8(fp)
 8000474:	00001f06 	br	80004f4 <Format_Fc1_W+0x90>
		for (j = 0; j < FC1_OUT_DIM; j++)
 8000478:	e03fff15 	stw	zero,-4(fp)
 800047c:	00001706 	br	80004dc <Format_Fc1_W+0x78>
			Fc1_W[i][j] = Fc1_W_raw[i*FC1_OUT_DIM + j];
 8000480:	e0bffe17 	ldw	r2,-8(fp)
 8000484:	1006917a 	slli	r3,r2,5
 8000488:	e0bfff17 	ldw	r2,-4(fp)
 800048c:	1887883a 	add	r3,r3,r2
 8000490:	00820034 	movhi	r2,2048
 8000494:	109d3904 	addi	r2,r2,29924
 8000498:	180690fa 	slli	r3,r3,3
 800049c:	10c9883a 	add	r4,r2,r3
 80004a0:	20800017 	ldw	r2,0(r4)
 80004a4:	20c00117 	ldw	r3,4(r4)
 80004a8:	010201f4 	movhi	r4,2055
 80004ac:	210de804 	addi	r4,r4,14240
 80004b0:	e17ffe17 	ldw	r5,-8(fp)
 80004b4:	280c917a 	slli	r6,r5,5
 80004b8:	e17fff17 	ldw	r5,-4(fp)
 80004bc:	314b883a 	add	r5,r6,r5
 80004c0:	280a90fa 	slli	r5,r5,3
 80004c4:	2149883a 	add	r4,r4,r5
 80004c8:	20800015 	stw	r2,0(r4)
 80004cc:	20c00115 	stw	r3,4(r4)
};

void Format_Fc1_W() {
	int i, j;
	for (i = 0; i < (IMAGE_DIM / 4)*(IMAGE_DIM / 4)*CONV2_OUT_DIM; i++)
		for (j = 0; j < FC1_OUT_DIM; j++)
 80004d0:	e0bfff17 	ldw	r2,-4(fp)
 80004d4:	10800044 	addi	r2,r2,1
 80004d8:	e0bfff15 	stw	r2,-4(fp)
 80004dc:	e0bfff17 	ldw	r2,-4(fp)
 80004e0:	10800810 	cmplti	r2,r2,32
 80004e4:	103fe61e 	bne	r2,zero,8000480 <__alt_data_end+0xf8000480>
	-0.035542078316, -0.023575557396, 0.042091764510, 0.197612598538, 0.000820584886, -0.121303014457, -0.045213054866, -0.046414125711, 0.026339301839, -0.060650255531, -0.080773353577, 0.015300501138, 0.158764556050, -0.001424677204, 0.162710338831, -0.016992481425, -0.015217824839, 0.016301445663, -0.047071058303, -0.014848603867, 0.050834346563, 0.066649317741, 0.160343617201, -0.034037679434, 0.037955723703, -0.042440604419, 0.045096464455, 0.071097336709, -0.084702648222, -0.073139488697, -0.005728538614, 0.055165097117,
};

void Format_Fc1_W() {
	int i, j;
	for (i = 0; i < (IMAGE_DIM / 4)*(IMAGE_DIM / 4)*CONV2_OUT_DIM; i++)
 80004e8:	e0bffe17 	ldw	r2,-8(fp)
 80004ec:	10800044 	addi	r2,r2,1
 80004f0:	e0bffe15 	stw	r2,-8(fp)
 80004f4:	e0bffe17 	ldw	r2,-8(fp)
 80004f8:	10803110 	cmplti	r2,r2,196
 80004fc:	103fde1e 	bne	r2,zero,8000478 <__alt_data_end+0xf8000478>
		for (j = 0; j < FC1_OUT_DIM; j++)
			Fc1_W[i][j] = Fc1_W_raw[i*FC1_OUT_DIM + j];
}
 8000500:	e037883a 	mov	sp,fp
 8000504:	df000017 	ldw	fp,0(sp)
 8000508:	dec00104 	addi	sp,sp,4
 800050c:	f800283a 	ret

08000510 <Format_Fc2_W>:
	0.171521484852, -0.501652836800, -0.042966634035, -0.198097750545, 0.174215391278, -0.043280988932, 0.188503652811, -0.131451472640, 0.115259565413, 0.150849923491,
	-0.125158265233, -0.145960763097, 0.034650668502, -0.235801413655, 0.205909237266, 0.094551570714, 0.187727853656, -0.226710900664, 0.164939746261, 0.164889454842,
	-0.162963539362, 0.157234698534, 0.003025386482, -0.356876045465, 0.141815289855, 0.067782752216, 0.157360702753, -0.312196701765, 0.119925968349, -0.183696389198,
};

void Format_Fc2_W() {
 8000510:	defffd04 	addi	sp,sp,-12
 8000514:	df000215 	stw	fp,8(sp)
 8000518:	df000204 	addi	fp,sp,8
	int i, j;
	for (i = 0; i < FC1_OUT_DIM; i++)
 800051c:	e03ffe15 	stw	zero,-8(fp)
 8000520:	00001f06 	br	80005a0 <Format_Fc2_W+0x90>
		for (j = 0; j < FC2_OUT_DIM; j++)
 8000524:	e03fff15 	stw	zero,-4(fp)
 8000528:	00001706 	br	8000588 <Format_Fc2_W+0x78>
			Fc2_W[i][j] = Fc2_W_raw[i*FC2_OUT_DIM + j];
 800052c:	e0bffe17 	ldw	r2,-8(fp)
 8000530:	10c002a4 	muli	r3,r2,10
 8000534:	e0bfff17 	ldw	r2,-4(fp)
 8000538:	1887883a 	add	r3,r3,r2
 800053c:	00820074 	movhi	r2,2049
 8000540:	108e3904 	addi	r2,r2,14564
 8000544:	180690fa 	slli	r3,r3,3
 8000548:	10c9883a 	add	r4,r2,r3
 800054c:	20800017 	ldw	r2,0(r4)
 8000550:	20c00117 	ldw	r3,4(r4)
 8000554:	010203b4 	movhi	r4,2062
 8000558:	2135e804 	addi	r4,r4,-10336
 800055c:	e17ffe17 	ldw	r5,-8(fp)
 8000560:	298002a4 	muli	r6,r5,10
 8000564:	e17fff17 	ldw	r5,-4(fp)
 8000568:	314b883a 	add	r5,r6,r5
 800056c:	280a90fa 	slli	r5,r5,3
 8000570:	2149883a 	add	r4,r4,r5
 8000574:	20800015 	stw	r2,0(r4)
 8000578:	20c00115 	stw	r3,4(r4)
};

void Format_Fc2_W() {
	int i, j;
	for (i = 0; i < FC1_OUT_DIM; i++)
		for (j = 0; j < FC2_OUT_DIM; j++)
 800057c:	e0bfff17 	ldw	r2,-4(fp)
 8000580:	10800044 	addi	r2,r2,1
 8000584:	e0bfff15 	stw	r2,-4(fp)
 8000588:	e0bfff17 	ldw	r2,-4(fp)
 800058c:	10800290 	cmplti	r2,r2,10
 8000590:	103fe61e 	bne	r2,zero,800052c <__alt_data_end+0xf800052c>
	-0.162963539362, 0.157234698534, 0.003025386482, -0.356876045465, 0.141815289855, 0.067782752216, 0.157360702753, -0.312196701765, 0.119925968349, -0.183696389198,
};

void Format_Fc2_W() {
	int i, j;
	for (i = 0; i < FC1_OUT_DIM; i++)
 8000594:	e0bffe17 	ldw	r2,-8(fp)
 8000598:	10800044 	addi	r2,r2,1
 800059c:	e0bffe15 	stw	r2,-8(fp)
 80005a0:	e0bffe17 	ldw	r2,-8(fp)
 80005a4:	10800810 	cmplti	r2,r2,32
 80005a8:	103fde1e 	bne	r2,zero,8000524 <__alt_data_end+0xf8000524>
		for (j = 0; j < FC2_OUT_DIM; j++)
			Fc2_W[i][j] = Fc2_W_raw[i*FC2_OUT_DIM + j];
}
 80005ac:	e037883a 	mov	sp,fp
 80005b0:	df000017 	ldw	fp,0(sp)
 80005b4:	dec00104 	addi	sp,sp,4
 80005b8:	f800283a 	ret

080005bc <Format_InputImage>:
0.00000000, 0.00000000, 0.00000000, 0.00000000, 0.00000000, 0.00000000, 0.00000000, 0.00000000, 0.00000000, 0.00000000, 0.00000000, 0.00000000, 0.00000000, 0.00000000, 0.00000000, 0.00000000, 0.00000000, 0.00000000, 0.00000000, 0.00000000, 0.00000000, 0.00000000, 0.00000000, 0.00000000, 0.00000000, 0.00000000, 0.00000000, 0.00000000,
*/
		0, 0, 0, 0, 0, 0, 0, 0, 0, 0, 0, 0, 0, 0, 0, 0, 0, 0, 0, 0, 0, 0, 0, 0, 0, 0, 0, 0, 0, 0, 0, 0, 0, 0, 0, 0, 0, 0, 0, 0, 0, 0, 0, 0, 0, 0, 0, 0, 0, 0, 0, 0, 0, 0, 0, 0, 0, 0, 0, 0, 0, 0, 0, 0, 0, 0, 0, 0, 0, 0, 0, 0, 0, 0, 0, 0, 0, 0, 0, 0, 0, 0, 0, 0, 0, 0, 0, 0, 0, 0, 0, 0, 0, 0, 0, 0, 0, 0.00784314, 0.0627451, 0.0941176, 0.0627451, 0.0117647, 0, 0, 0, 0, 0, 0, 0, 0, 0, 0, 0, 0, 0, 0, 0, 0, 0, 0, 0, 0, 0, 0.113725, 0.584314, 0.803922, 0.952941, 0.968627, 0.945098, 0.839216, 0.505882, 0.0745098, 0, 0, 0, 0, 0, 0, 0, 0, 0, 0, 0, 0, 0, 0, 0, 0, 0, 0.027451, 0.513725, 0.937255, 0.996078, 0.992157, 0.988235, 0.980392, 0.992157, 0.996078, 0.996078, 0.85098, 0.207843, 0, 0, 0, 0, 0, 0, 0, 0, 0, 0, 0, 0, 0, 0, 0.0117647, 0.541176, 0.784314, 0.992157, 0.992157, 0.882353, 0.435294, 0.176471, 0.101961, 0.188235, 0.482353, 0.92549, 0.996078, 0.94902, 0.215686, 0, 0, 0, 0, 0, 0, 0, 0, 0, 0, 0, 0, 0, 0.0784314, 0.972549, 0.996078, 0.964706, 0.466667, 0.0431373, 0, 0, 0, 0, 0, 0.152941, 0.811765, 0.996078, 0.635294, 0, 0, 0, 0, 0, 0, 0, 0, 0, 0, 0, 0, 0, 0.00392157, 0.623529, 0.847059, 0.364706, 0, 0, 0, 0, 0, 0, 0, 0, 0.321569, 0.992157, 0.909804, 0.0392157, 0, 0, 0, 0, 0, 0, 0, 0, 0, 0, 0, 0, 0, 0, 0, 0, 0, 0, 0, 0, 0, 0, 0, 0, 0.0745098, 0.972549, 0.984314, 0.12549, 0, 0, 0, 0, 0, 0, 0, 0, 0, 0, 0, 0, 0, 0, 0, 0, 0, 0, 0, 0, 0, 0, 0, 0, 0.101961, 0.976471, 0.980392, 0.113725, 0, 0, 0, 0, 0, 0, 0, 0, 0, 0, 0, 0, 0, 0, 0, 0, 0, 0, 0, 0, 0, 0, 0, 0, 0.498039, 0.992157, 0.882353, 0.0352941, 0, 0, 0, 0, 0, 0, 0, 0, 0, 0, 0, 0, 0, 0, 0, 0, 0, 0, 0, 0, 0, 0, 0, 0.172549, 0.937255, 0.992157, 0.443137, 0, 0, 0, 0, 0, 0, 0, 0, 0, 0, 0, 0, 0, 0, 0, 0, 0, 0, 0, 0, 0, 0, 0, 0, 0.658824, 0.996078, 0.788235, 0.027451, 0, 0, 0, 0, 0, 0, 0, 0, 0, 0, 0, 0, 0, 0, 0, 0, 0, 0, 0, 0, 0, 0, 0, 0.129412, 0.952941, 0.992157, 0.294118, 0, 0, 0, 0, 0, 0, 0, 0, 0, 0, 0, 0, 0, 0, 0, 0, 0, 0, 0, 0, 0, 0, 0, 0.0705882, 0.792157, 0.996078, 0.905882, 0.0509804, 0, 0, 0, 0, 0, 0, 0, 0, 0, 0, 0, 0, 0, 0, 0, 0, 0, 0, 0, 0, 0, 0, 0.0235294, 0.701961, 0.996078, 0.94902, 0.266667, 0, 0, 0, 0, 0, 0, 0, 0, 0, 0, 0, 0, 0, 0, 0, 0, 0, 0, 0, 0, 0.0392157, 0.207843, 0.513725, 0.733333, 0.992157, 0.992157, 0.670588, 0.321569, 0.160784, 0.0156863, 0, 0, 0, 0, 0, 0, 0, 0, 0, 0, 0, 0, 0, 0, 0, 0.00392157, 0.211765, 0.72549, 0.92549, 0.988235, 0.996078, 0.996078, 0.996078, 0.996078, 0.996078, 0.992157, 0.972549, 0.878431, 0.788235, 0.509804, 0.305882, 0.0627451, 0, 0, 0, 0, 0, 0, 0, 0, 0, 0, 0.054902, 0.580392, 0.976471, 0.996078, 0.992157, 0.992157, 0.996078, 0.992157, 0.756863, 0.572549, 0.678431, 0.85098, 0.968627, 0.992157, 0.996078, 0.996078, 0.992157, 0.792157, 0.0117647, 0, 0, 0, 0, 0, 0, 0, 0, 0.0666667, 0.745098, 0.992157, 0.992157, 0.823529, 0.862745, 0.992157, 0.992157, 0.705882, 0.0313725, 0, 0, 0.00784314, 0.121569, 0.270588, 0.517647, 0.705882, 0.94902, 0.72549, 0.00784314, 0, 0, 0, 0, 0, 0, 0, 0, 0.67451, 0.996078, 0.952941, 0.658824, 0.870588, 0.992157, 0.968627, 0.529412, 0.0352941, 0, 0, 0, 0, 0, 0, 0, 0, 0.0392157, 0.0156863, 0, 0, 0, 0, 0, 0, 0, 0, 0.141176, 0.976471, 0.992157, 0.882353, 0.984314, 0.996078, 0.87451, 0.243137, 0, 0, 0, 0, 0, 0, 0, 0, 0, 0, 0, 0, 0, 0, 0, 0, 0, 0, 0, 0, 0.109804, 0.92549, 0.996078, 0.996078, 0.984314, 0.580392, 0.0705882, 0, 0, 0, 0, 0, 0, 0, 0, 0, 0, 0, 0, 0, 0, 0, 0, 0, 0, 0, 0, 0, 0, 0.227451, 0.623529, 0.694118, 0.34902, 0.00392157, 0, 0, 0, 0, 0, 0, 0, 0, 0, 0, 0, 0, 0, 0, 0, 0, 0, 0, 0, 0, 0, 0, 0, 0, 0, 0, 0, 0, 0, 0, 0, 0, 0, 0, 0, 0, 0, 0, 0, 0, 0, 0, 0, 0, 0, 0, 0, 0, 0, 0, 0, 0, 0, 0, 0, 0, 0, 0, 0, 0, 0, 0, 0, 0, 0, 0, 0, 0, 0, 0, 0, 0, 0, 0, 0, 0, 0, 0, 0, 0, 0, 0, 0, 0, 0, 0, 0, 0, 0, 0, 0, 0, 0, 0, 0, 0, 0, 0, 0, 0,
};

void Format_InputImage() {
 80005bc:	defffd04 	addi	sp,sp,-12
 80005c0:	df000215 	stw	fp,8(sp)
 80005c4:	df000204 	addi	fp,sp,8
	int i, j;
	for (i = 0; i < IMAGE_DIM; i++)
 80005c8:	e03ffe15 	stw	zero,-8(fp)
 80005cc:	00001f06 	br	800064c <Format_InputImage+0x90>
		for (j = 0; j < IMAGE_DIM; j++)
 80005d0:	e03fff15 	stw	zero,-4(fp)
 80005d4:	00001706 	br	8000634 <Format_InputImage+0x78>
			Input_Image[i][j] = Input_Image_raw[i*IMAGE_DIM + j];
 80005d8:	e0bffe17 	ldw	r2,-8(fp)
 80005dc:	10c00724 	muli	r3,r2,28
 80005e0:	e0bfff17 	ldw	r2,-4(fp)
 80005e4:	1887883a 	add	r3,r3,r2
 80005e8:	00820074 	movhi	r2,2049
 80005ec:	1090b904 	addi	r2,r2,17124
 80005f0:	180690fa 	slli	r3,r3,3
 80005f4:	10c9883a 	add	r4,r2,r3
 80005f8:	20800017 	ldw	r2,0(r4)
 80005fc:	20c00117 	ldw	r3,4(r4)
 8000600:	01020134 	movhi	r4,2052
 8000604:	2122c004 	addi	r4,r4,-29952
 8000608:	e17ffe17 	ldw	r5,-8(fp)
 800060c:	29800724 	muli	r6,r5,28
 8000610:	e17fff17 	ldw	r5,-4(fp)
 8000614:	314b883a 	add	r5,r6,r5
 8000618:	280a90fa 	slli	r5,r5,3
 800061c:	2149883a 	add	r4,r4,r5
 8000620:	20800015 	stw	r2,0(r4)
 8000624:	20c00115 	stw	r3,4(r4)
};

void Format_InputImage() {
	int i, j;
	for (i = 0; i < IMAGE_DIM; i++)
		for (j = 0; j < IMAGE_DIM; j++)
 8000628:	e0bfff17 	ldw	r2,-4(fp)
 800062c:	10800044 	addi	r2,r2,1
 8000630:	e0bfff15 	stw	r2,-4(fp)
 8000634:	e0bfff17 	ldw	r2,-4(fp)
 8000638:	10800710 	cmplti	r2,r2,28
 800063c:	103fe61e 	bne	r2,zero,80005d8 <__alt_data_end+0xf80005d8>
		0, 0, 0, 0, 0, 0, 0, 0, 0, 0, 0, 0, 0, 0, 0, 0, 0, 0, 0, 0, 0, 0, 0, 0, 0, 0, 0, 0, 0, 0, 0, 0, 0, 0, 0, 0, 0, 0, 0, 0, 0, 0, 0, 0, 0, 0, 0, 0, 0, 0, 0, 0, 0, 0, 0, 0, 0, 0, 0, 0, 0, 0, 0, 0, 0, 0, 0, 0, 0, 0, 0, 0, 0, 0, 0, 0, 0, 0, 0, 0, 0, 0, 0, 0, 0, 0, 0, 0, 0, 0, 0, 0, 0, 0, 0, 0, 0, 0.00784314, 0.0627451, 0.0941176, 0.0627451, 0.0117647, 0, 0, 0, 0, 0, 0, 0, 0, 0, 0, 0, 0, 0, 0, 0, 0, 0, 0, 0, 0, 0, 0.113725, 0.584314, 0.803922, 0.952941, 0.968627, 0.945098, 0.839216, 0.505882, 0.0745098, 0, 0, 0, 0, 0, 0, 0, 0, 0, 0, 0, 0, 0, 0, 0, 0, 0, 0.027451, 0.513725, 0.937255, 0.996078, 0.992157, 0.988235, 0.980392, 0.992157, 0.996078, 0.996078, 0.85098, 0.207843, 0, 0, 0, 0, 0, 0, 0, 0, 0, 0, 0, 0, 0, 0, 0.0117647, 0.541176, 0.784314, 0.992157, 0.992157, 0.882353, 0.435294, 0.176471, 0.101961, 0.188235, 0.482353, 0.92549, 0.996078, 0.94902, 0.215686, 0, 0, 0, 0, 0, 0, 0, 0, 0, 0, 0, 0, 0, 0.0784314, 0.972549, 0.996078, 0.964706, 0.466667, 0.0431373, 0, 0, 0, 0, 0, 0.152941, 0.811765, 0.996078, 0.635294, 0, 0, 0, 0, 0, 0, 0, 0, 0, 0, 0, 0, 0, 0.00392157, 0.623529, 0.847059, 0.364706, 0, 0, 0, 0, 0, 0, 0, 0, 0.321569, 0.992157, 0.909804, 0.0392157, 0, 0, 0, 0, 0, 0, 0, 0, 0, 0, 0, 0, 0, 0, 0, 0, 0, 0, 0, 0, 0, 0, 0, 0, 0.0745098, 0.972549, 0.984314, 0.12549, 0, 0, 0, 0, 0, 0, 0, 0, 0, 0, 0, 0, 0, 0, 0, 0, 0, 0, 0, 0, 0, 0, 0, 0, 0.101961, 0.976471, 0.980392, 0.113725, 0, 0, 0, 0, 0, 0, 0, 0, 0, 0, 0, 0, 0, 0, 0, 0, 0, 0, 0, 0, 0, 0, 0, 0, 0.498039, 0.992157, 0.882353, 0.0352941, 0, 0, 0, 0, 0, 0, 0, 0, 0, 0, 0, 0, 0, 0, 0, 0, 0, 0, 0, 0, 0, 0, 0, 0.172549, 0.937255, 0.992157, 0.443137, 0, 0, 0, 0, 0, 0, 0, 0, 0, 0, 0, 0, 0, 0, 0, 0, 0, 0, 0, 0, 0, 0, 0, 0, 0.658824, 0.996078, 0.788235, 0.027451, 0, 0, 0, 0, 0, 0, 0, 0, 0, 0, 0, 0, 0, 0, 0, 0, 0, 0, 0, 0, 0, 0, 0, 0.129412, 0.952941, 0.992157, 0.294118, 0, 0, 0, 0, 0, 0, 0, 0, 0, 0, 0, 0, 0, 0, 0, 0, 0, 0, 0, 0, 0, 0, 0, 0.0705882, 0.792157, 0.996078, 0.905882, 0.0509804, 0, 0, 0, 0, 0, 0, 0, 0, 0, 0, 0, 0, 0, 0, 0, 0, 0, 0, 0, 0, 0, 0, 0.0235294, 0.701961, 0.996078, 0.94902, 0.266667, 0, 0, 0, 0, 0, 0, 0, 0, 0, 0, 0, 0, 0, 0, 0, 0, 0, 0, 0, 0, 0.0392157, 0.207843, 0.513725, 0.733333, 0.992157, 0.992157, 0.670588, 0.321569, 0.160784, 0.0156863, 0, 0, 0, 0, 0, 0, 0, 0, 0, 0, 0, 0, 0, 0, 0, 0.00392157, 0.211765, 0.72549, 0.92549, 0.988235, 0.996078, 0.996078, 0.996078, 0.996078, 0.996078, 0.992157, 0.972549, 0.878431, 0.788235, 0.509804, 0.305882, 0.0627451, 0, 0, 0, 0, 0, 0, 0, 0, 0, 0, 0.054902, 0.580392, 0.976471, 0.996078, 0.992157, 0.992157, 0.996078, 0.992157, 0.756863, 0.572549, 0.678431, 0.85098, 0.968627, 0.992157, 0.996078, 0.996078, 0.992157, 0.792157, 0.0117647, 0, 0, 0, 0, 0, 0, 0, 0, 0.0666667, 0.745098, 0.992157, 0.992157, 0.823529, 0.862745, 0.992157, 0.992157, 0.705882, 0.0313725, 0, 0, 0.00784314, 0.121569, 0.270588, 0.517647, 0.705882, 0.94902, 0.72549, 0.00784314, 0, 0, 0, 0, 0, 0, 0, 0, 0.67451, 0.996078, 0.952941, 0.658824, 0.870588, 0.992157, 0.968627, 0.529412, 0.0352941, 0, 0, 0, 0, 0, 0, 0, 0, 0.0392157, 0.0156863, 0, 0, 0, 0, 0, 0, 0, 0, 0.141176, 0.976471, 0.992157, 0.882353, 0.984314, 0.996078, 0.87451, 0.243137, 0, 0, 0, 0, 0, 0, 0, 0, 0, 0, 0, 0, 0, 0, 0, 0, 0, 0, 0, 0, 0.109804, 0.92549, 0.996078, 0.996078, 0.984314, 0.580392, 0.0705882, 0, 0, 0, 0, 0, 0, 0, 0, 0, 0, 0, 0, 0, 0, 0, 0, 0, 0, 0, 0, 0, 0, 0.227451, 0.623529, 0.694118, 0.34902, 0.00392157, 0, 0, 0, 0, 0, 0, 0, 0, 0, 0, 0, 0, 0, 0, 0, 0, 0, 0, 0, 0, 0, 0, 0, 0, 0, 0, 0, 0, 0, 0, 0, 0, 0, 0, 0, 0, 0, 0, 0, 0, 0, 0, 0, 0, 0, 0, 0, 0, 0, 0, 0, 0, 0, 0, 0, 0, 0, 0, 0, 0, 0, 0, 0, 0, 0, 0, 0, 0, 0, 0, 0, 0, 0, 0, 0, 0, 0, 0, 0, 0, 0, 0, 0, 0, 0, 0, 0, 0, 0, 0, 0, 0, 0, 0, 0, 0, 0, 0, 0, 0,
};

void Format_InputImage() {
	int i, j;
	for (i = 0; i < IMAGE_DIM; i++)
 8000640:	e0bffe17 	ldw	r2,-8(fp)
 8000644:	10800044 	addi	r2,r2,1
 8000648:	e0bffe15 	stw	r2,-8(fp)
 800064c:	e0bffe17 	ldw	r2,-8(fp)
 8000650:	10800710 	cmplti	r2,r2,28
 8000654:	103fde1e 	bne	r2,zero,80005d0 <__alt_data_end+0xf80005d0>
		for (j = 0; j < IMAGE_DIM; j++)
			Input_Image[i][j] = Input_Image_raw[i*IMAGE_DIM + j];
}
 8000658:	e037883a 	mov	sp,fp
 800065c:	df000017 	ldw	fp,0(sp)
 8000660:	dec00104 	addi	sp,sp,4
 8000664:	f800283a 	ret

08000668 <CNN_MNIST_recognition>:
// FC Layer 2
void Fc2();
// Softmax and get the result
void Get_Answer();

int CNN_MNIST_recognition(unsigned int *pSEG) {
 8000668:	defffd04 	addi	sp,sp,-12
 800066c:	dfc00215 	stw	ra,8(sp)
 8000670:	df000115 	stw	fp,4(sp)
 8000674:	df000104 	addi	fp,sp,4
 8000678:	e13fff15 	stw	r4,-4(fp)
	LCD_Clear();
 800067c:	80001b00 	call	80001b0 <LCD_Clear>
	Load_All();
 8000680:	80006fc0 	call	80006fc <Load_All>
	*(pSEG) = 0xff00ffff + (9 << 20) + (6 << 16);  // 96%
 8000684:	e0ffff17 	ldw	r3,-4(fp)
 8000688:	00bfe5f4 	movhi	r2,65431
 800068c:	10bfffc4 	addi	r2,r2,-1
 8000690:	18800015 	stw	r2,0(r3)
	Conv1();
 8000694:	80007300 	call	8000730 <Conv1>
	MaxPool1();
 8000698:	8000ab80 	call	8000ab8 <MaxPool1>
	*(pSEG) = 0xff00ffff + (9 << 20) + (7 << 16);  // 97%
 800069c:	e0ffff17 	ldw	r3,-4(fp)
 80006a0:	00bfe634 	movhi	r2,65432
 80006a4:	10bfffc4 	addi	r2,r2,-1
 80006a8:	18800015 	stw	r2,0(r3)
	Conv2();
 80006ac:	8000cac0 	call	8000cac <Conv2>
	MaxPool2();
 80006b0:	8000f800 	call	8000f80 <MaxPool2>
	Flatten();
 80006b4:	80011880 	call	8001188 <Flatten>
	*(pSEG) = 0xff00ffff + (9 << 20) + (8 << 16);  // 98%
 80006b8:	e0ffff17 	ldw	r3,-4(fp)
 80006bc:	00bfe674 	movhi	r2,65433
 80006c0:	10bfffc4 	addi	r2,r2,-1
 80006c4:	18800015 	stw	r2,0(r3)
	Fc1();
 80006c8:	80012780 	call	8001278 <Fc1>
	*(pSEG) = 0xff00ffff + (9 << 20) + (9 << 16);  // 99%
 80006cc:	e0ffff17 	ldw	r3,-4(fp)
 80006d0:	00bfe6b4 	movhi	r2,65434
 80006d4:	10bfffc4 	addi	r2,r2,-1
 80006d8:	18800015 	stw	r2,0(r3)
	Fc2();
 80006dc:	80014080 	call	8001408 <Fc2>
	Get_Answer();
 80006e0:	80015640 	call	8001564 <Get_Answer>
	return ans;
 80006e4:	d09f5117 	ldw	r2,32068(gp)
}
 80006e8:	e037883a 	mov	sp,fp
 80006ec:	dfc00117 	ldw	ra,4(sp)
 80006f0:	df000017 	ldw	fp,0(sp)
 80006f4:	dec00204 	addi	sp,sp,8
 80006f8:	f800283a 	ret

080006fc <Load_All>:

void Load_All() {
 80006fc:	defffe04 	addi	sp,sp,-8
 8000700:	dfc00115 	stw	ra,4(sp)
 8000704:	df000015 	stw	fp,0(sp)
 8000708:	d839883a 	mov	fp,sp
	Format_Conv1_W();
 800070c:	80002380 	call	8000238 <Format_Conv1_W>
	Format_Conv2_W();
 8000710:	800032c0 	call	800032c <Format_Conv2_W>
	Format_Fc1_W();
 8000714:	80004640 	call	8000464 <Format_Fc1_W>
	Format_Fc2_W();
 8000718:	80005100 	call	8000510 <Format_Fc2_W>
	//Format_InputImage();
}
 800071c:	e037883a 	mov	sp,fp
 8000720:	dfc00117 	ldw	ra,4(sp)
 8000724:	df000017 	ldw	fp,0(sp)
 8000728:	dec00204 	addi	sp,sp,8
 800072c:	f800283a 	ret

08000730 <Conv1>:

void Conv1() {
 8000730:	defff704 	addi	sp,sp,-36
 8000734:	dfc00815 	stw	ra,32(sp)
 8000738:	df000715 	stw	fp,28(sp)
 800073c:	df000704 	addi	fp,sp,28
	int i, j, k;
	int i2, j2;
	double tmp_ans;
	for (i = 0; i < IMAGE_DIM; i++)
 8000740:	e03ff915 	stw	zero,-28(fp)
 8000744:	00009606 	br	80009a0 <Conv1+0x270>
		for (j = 0; j < IMAGE_DIM; j++)
 8000748:	e03ffa15 	stw	zero,-24(fp)
 800074c:	00008e06 	br	8000988 <Conv1+0x258>
			for (k = 0; k < CONV1_OUT_DIM; k++) {
 8000750:	e03ffb15 	stw	zero,-20(fp)
 8000754:	00008606 	br	8000970 <Conv1+0x240>
				tmp_ans = 0.0;
 8000758:	e03ffe15 	stw	zero,-8(fp)
 800075c:	e03fff15 	stw	zero,-4(fp)
				for (i2 = -CONV_RANGE; i2 <= CONV_RANGE; i2++)
 8000760:	00bfffc4 	movi	r2,-1
 8000764:	e0bffc15 	stw	r2,-16(fp)
 8000768:	00004f06 	br	80008a8 <Conv1+0x178>
					for (j2 = -CONV_RANGE; j2 <= CONV_RANGE; j2++)
 800076c:	00bfffc4 	movi	r2,-1
 8000770:	e0bffd15 	stw	r2,-12(fp)
 8000774:	00004606 	br	8000890 <Conv1+0x160>
						if (i + i2 >= 0 && j + j2 >= 0 && i + i2 < IMAGE_DIM && j + j2 < IMAGE_DIM)
 8000778:	e0fff917 	ldw	r3,-28(fp)
 800077c:	e0bffc17 	ldw	r2,-16(fp)
 8000780:	1885883a 	add	r2,r3,r2
 8000784:	10003f16 	blt	r2,zero,8000884 <Conv1+0x154>
 8000788:	e0fffa17 	ldw	r3,-24(fp)
 800078c:	e0bffd17 	ldw	r2,-12(fp)
 8000790:	1885883a 	add	r2,r3,r2
 8000794:	10003b16 	blt	r2,zero,8000884 <Conv1+0x154>
 8000798:	e0fff917 	ldw	r3,-28(fp)
 800079c:	e0bffc17 	ldw	r2,-16(fp)
 80007a0:	1885883a 	add	r2,r3,r2
 80007a4:	10800708 	cmpgei	r2,r2,28
 80007a8:	1000361e 	bne	r2,zero,8000884 <Conv1+0x154>
 80007ac:	e0fffa17 	ldw	r3,-24(fp)
 80007b0:	e0bffd17 	ldw	r2,-12(fp)
 80007b4:	1885883a 	add	r2,r3,r2
 80007b8:	10800708 	cmpgei	r2,r2,28
 80007bc:	1000311e 	bne	r2,zero,8000884 <Conv1+0x154>
							tmp_ans += Conv1_W[CONV_MID + i2][CONV_MID + j2][0][k] * Input_Image[i + i2][j + j2];
 80007c0:	e0bffc17 	ldw	r2,-16(fp)
 80007c4:	11000044 	addi	r4,r2,1
 80007c8:	e0bffd17 	ldw	r2,-12(fp)
 80007cc:	11400044 	addi	r5,r2,1
 80007d0:	00c200f4 	movhi	r3,2051
 80007d4:	18dbfc04 	addi	r3,r3,28656
 80007d8:	2005883a 	mov	r2,r4
 80007dc:	1085883a 	add	r2,r2,r2
 80007e0:	1105883a 	add	r2,r2,r4
 80007e4:	1145883a 	add	r2,r2,r5
 80007e8:	100890fa 	slli	r4,r2,3
 80007ec:	e0bffb17 	ldw	r2,-20(fp)
 80007f0:	2085883a 	add	r2,r4,r2
 80007f4:	100490fa 	slli	r2,r2,3
 80007f8:	1885883a 	add	r2,r3,r2
 80007fc:	11400017 	ldw	r5,0(r2)
 8000800:	11800117 	ldw	r6,4(r2)
 8000804:	e0fff917 	ldw	r3,-28(fp)
 8000808:	e0bffc17 	ldw	r2,-16(fp)
 800080c:	1889883a 	add	r4,r3,r2
 8000810:	e0fffa17 	ldw	r3,-24(fp)
 8000814:	e0bffd17 	ldw	r2,-12(fp)
 8000818:	1887883a 	add	r3,r3,r2
 800081c:	00820134 	movhi	r2,2052
 8000820:	10a2c004 	addi	r2,r2,-29952
 8000824:	21000724 	muli	r4,r4,28
 8000828:	20c7883a 	add	r3,r4,r3
 800082c:	180690fa 	slli	r3,r3,3
 8000830:	10c9883a 	add	r4,r2,r3
 8000834:	20800017 	ldw	r2,0(r4)
 8000838:	20c00117 	ldw	r3,4(r4)
 800083c:	2809883a 	mov	r4,r5
 8000840:	300b883a 	mov	r5,r6
 8000844:	100d883a 	mov	r6,r2
 8000848:	180f883a 	mov	r7,r3
 800084c:	8003fe00 	call	8003fe0 <__muldf3>
 8000850:	1009883a 	mov	r4,r2
 8000854:	180b883a 	mov	r5,r3
 8000858:	2005883a 	mov	r2,r4
 800085c:	2807883a 	mov	r3,r5
 8000860:	e13ffe17 	ldw	r4,-8(fp)
 8000864:	e17fff17 	ldw	r5,-4(fp)
 8000868:	100d883a 	mov	r6,r2
 800086c:	180f883a 	mov	r7,r3
 8000870:	8002cb80 	call	8002cb8 <__adddf3>
 8000874:	1009883a 	mov	r4,r2
 8000878:	180b883a 	mov	r5,r3
 800087c:	e13ffe15 	stw	r4,-8(fp)
 8000880:	e17fff15 	stw	r5,-4(fp)
	for (i = 0; i < IMAGE_DIM; i++)
		for (j = 0; j < IMAGE_DIM; j++)
			for (k = 0; k < CONV1_OUT_DIM; k++) {
				tmp_ans = 0.0;
				for (i2 = -CONV_RANGE; i2 <= CONV_RANGE; i2++)
					for (j2 = -CONV_RANGE; j2 <= CONV_RANGE; j2++)
 8000884:	e0bffd17 	ldw	r2,-12(fp)
 8000888:	10800044 	addi	r2,r2,1
 800088c:	e0bffd15 	stw	r2,-12(fp)
 8000890:	e0bffd17 	ldw	r2,-12(fp)
 8000894:	10800090 	cmplti	r2,r2,2
 8000898:	103fb71e 	bne	r2,zero,8000778 <__alt_data_end+0xf8000778>
	double tmp_ans;
	for (i = 0; i < IMAGE_DIM; i++)
		for (j = 0; j < IMAGE_DIM; j++)
			for (k = 0; k < CONV1_OUT_DIM; k++) {
				tmp_ans = 0.0;
				for (i2 = -CONV_RANGE; i2 <= CONV_RANGE; i2++)
 800089c:	e0bffc17 	ldw	r2,-16(fp)
 80008a0:	10800044 	addi	r2,r2,1
 80008a4:	e0bffc15 	stw	r2,-16(fp)
 80008a8:	e0bffc17 	ldw	r2,-16(fp)
 80008ac:	10800090 	cmplti	r2,r2,2
 80008b0:	103fae1e 	bne	r2,zero,800076c <__alt_data_end+0xf800076c>
					for (j2 = -CONV_RANGE; j2 <= CONV_RANGE; j2++)
						if (i + i2 >= 0 && j + j2 >= 0 && i + i2 < IMAGE_DIM && j + j2 < IMAGE_DIM)
							tmp_ans += Conv1_W[CONV_MID + i2][CONV_MID + j2][0][k] * Input_Image[i + i2][j + j2];
				tmp_ans += Conv1_B[k];
 80008b4:	00820034 	movhi	r2,2048
 80008b8:	1099fd04 	addi	r2,r2,26612
 80008bc:	e0fffb17 	ldw	r3,-20(fp)
 80008c0:	180690fa 	slli	r3,r3,3
 80008c4:	10c9883a 	add	r4,r2,r3
 80008c8:	20800017 	ldw	r2,0(r4)
 80008cc:	20c00117 	ldw	r3,4(r4)
 80008d0:	e13ffe17 	ldw	r4,-8(fp)
 80008d4:	e17fff17 	ldw	r5,-4(fp)
 80008d8:	100d883a 	mov	r6,r2
 80008dc:	180f883a 	mov	r7,r3
 80008e0:	8002cb80 	call	8002cb8 <__adddf3>
 80008e4:	1009883a 	mov	r4,r2
 80008e8:	180b883a 	mov	r5,r3
 80008ec:	e13ffe15 	stw	r4,-8(fp)
 80008f0:	e17fff15 	stw	r5,-4(fp)
				tmp_ans = RELU(tmp_ans);
 80008f4:	e13ffe17 	ldw	r4,-8(fp)
 80008f8:	e17fff17 	ldw	r5,-4(fp)
 80008fc:	000d883a 	mov	r6,zero
 8000900:	000f883a 	mov	r7,zero
 8000904:	8003e200 	call	8003e20 <__gedf2>
 8000908:	0080030e 	bge	zero,r2,8000918 <Conv1+0x1e8>
 800090c:	e0bffe17 	ldw	r2,-8(fp)
 8000910:	e0ffff17 	ldw	r3,-4(fp)
 8000914:	00000206 	br	8000920 <Conv1+0x1f0>
 8000918:	0005883a 	mov	r2,zero
 800091c:	0007883a 	mov	r3,zero
 8000920:	e0bffe15 	stw	r2,-8(fp)
 8000924:	e0ffff15 	stw	r3,-4(fp)
				Conv1_Image[i][j][k] = tmp_ans;
 8000928:	008200f4 	movhi	r2,2051
 800092c:	10a4dc04 	addi	r2,r2,-27792
 8000930:	e0fff917 	ldw	r3,-28(fp)
 8000934:	19000724 	muli	r4,r3,28
 8000938:	e0fffa17 	ldw	r3,-24(fp)
 800093c:	20c7883a 	add	r3,r4,r3
 8000940:	180890fa 	slli	r4,r3,3
 8000944:	e0fffb17 	ldw	r3,-20(fp)
 8000948:	20c7883a 	add	r3,r4,r3
 800094c:	180690fa 	slli	r3,r3,3
 8000950:	10c5883a 	add	r2,r2,r3
 8000954:	e0fffe17 	ldw	r3,-8(fp)
 8000958:	10c00015 	stw	r3,0(r2)
 800095c:	e0ffff17 	ldw	r3,-4(fp)
 8000960:	10c00115 	stw	r3,4(r2)
	int i, j, k;
	int i2, j2;
	double tmp_ans;
	for (i = 0; i < IMAGE_DIM; i++)
		for (j = 0; j < IMAGE_DIM; j++)
			for (k = 0; k < CONV1_OUT_DIM; k++) {
 8000964:	e0bffb17 	ldw	r2,-20(fp)
 8000968:	10800044 	addi	r2,r2,1
 800096c:	e0bffb15 	stw	r2,-20(fp)
 8000970:	e0bffb17 	ldw	r2,-20(fp)
 8000974:	10800210 	cmplti	r2,r2,8
 8000978:	103f771e 	bne	r2,zero,8000758 <__alt_data_end+0xf8000758>
void Conv1() {
	int i, j, k;
	int i2, j2;
	double tmp_ans;
	for (i = 0; i < IMAGE_DIM; i++)
		for (j = 0; j < IMAGE_DIM; j++)
 800097c:	e0bffa17 	ldw	r2,-24(fp)
 8000980:	10800044 	addi	r2,r2,1
 8000984:	e0bffa15 	stw	r2,-24(fp)
 8000988:	e0bffa17 	ldw	r2,-24(fp)
 800098c:	10800710 	cmplti	r2,r2,28
 8000990:	103f6f1e 	bne	r2,zero,8000750 <__alt_data_end+0xf8000750>

void Conv1() {
	int i, j, k;
	int i2, j2;
	double tmp_ans;
	for (i = 0; i < IMAGE_DIM; i++)
 8000994:	e0bff917 	ldw	r2,-28(fp)
 8000998:	10800044 	addi	r2,r2,1
 800099c:	e0bff915 	stw	r2,-28(fp)
 80009a0:	e0bff917 	ldw	r2,-28(fp)
 80009a4:	10800710 	cmplti	r2,r2,28
 80009a8:	103f671e 	bne	r2,zero,8000748 <__alt_data_end+0xf8000748>
							tmp_ans += Conv1_W[CONV_MID + i2][CONV_MID + j2][0][k] * Input_Image[i + i2][j + j2];
				tmp_ans += Conv1_B[k];
				tmp_ans = RELU(tmp_ans);
				Conv1_Image[i][j][k] = tmp_ans;
			}
}
 80009ac:	e037883a 	mov	sp,fp
 80009b0:	dfc00117 	ldw	ra,4(sp)
 80009b4:	df000017 	ldw	fp,0(sp)
 80009b8:	dec00204 	addi	sp,sp,8
 80009bc:	f800283a 	ret

080009c0 <max>:

double max(double x1, double x2, double x3, double x4) {
 80009c0:	defff804 	addi	sp,sp,-32
 80009c4:	dfc00715 	stw	ra,28(sp)
 80009c8:	df000615 	stw	fp,24(sp)
 80009cc:	df000604 	addi	fp,sp,24
 80009d0:	e13ffc15 	stw	r4,-16(fp)
 80009d4:	e17ffd15 	stw	r5,-12(fp)
 80009d8:	e1bffe15 	stw	r6,-8(fp)
 80009dc:	e1ffff15 	stw	r7,-4(fp)
	double ans = x1;
 80009e0:	e0bffc17 	ldw	r2,-16(fp)
 80009e4:	e0bffa15 	stw	r2,-24(fp)
 80009e8:	e0bffd17 	ldw	r2,-12(fp)
 80009ec:	e0bffb15 	stw	r2,-20(fp)
	ans = (x2 > ans) ? x2 : ans;
 80009f0:	e13ffe17 	ldw	r4,-8(fp)
 80009f4:	e17fff17 	ldw	r5,-4(fp)
 80009f8:	e1bffa17 	ldw	r6,-24(fp)
 80009fc:	e1fffb17 	ldw	r7,-20(fp)
 8000a00:	8003e200 	call	8003e20 <__gedf2>
 8000a04:	0080030e 	bge	zero,r2,8000a14 <max+0x54>
 8000a08:	e0bffe17 	ldw	r2,-8(fp)
 8000a0c:	e0ffff17 	ldw	r3,-4(fp)
 8000a10:	00000206 	br	8000a1c <max+0x5c>
 8000a14:	e0bffa17 	ldw	r2,-24(fp)
 8000a18:	e0fffb17 	ldw	r3,-20(fp)
 8000a1c:	e0bffa15 	stw	r2,-24(fp)
 8000a20:	e0fffb15 	stw	r3,-20(fp)
	ans = (x3 > ans) ? x3 : ans;
 8000a24:	e1000217 	ldw	r4,8(fp)
 8000a28:	e1400317 	ldw	r5,12(fp)
 8000a2c:	e1bffa17 	ldw	r6,-24(fp)
 8000a30:	e1fffb17 	ldw	r7,-20(fp)
 8000a34:	8003e200 	call	8003e20 <__gedf2>
 8000a38:	0080030e 	bge	zero,r2,8000a48 <max+0x88>
 8000a3c:	e0800217 	ldw	r2,8(fp)
 8000a40:	e0c00317 	ldw	r3,12(fp)
 8000a44:	00000206 	br	8000a50 <max+0x90>
 8000a48:	e0bffa17 	ldw	r2,-24(fp)
 8000a4c:	e0fffb17 	ldw	r3,-20(fp)
 8000a50:	e0bffa15 	stw	r2,-24(fp)
 8000a54:	e0fffb15 	stw	r3,-20(fp)
	ans = (x4 > ans) ? x4 : ans;
 8000a58:	e1000417 	ldw	r4,16(fp)
 8000a5c:	e1400517 	ldw	r5,20(fp)
 8000a60:	e1bffa17 	ldw	r6,-24(fp)
 8000a64:	e1fffb17 	ldw	r7,-20(fp)
 8000a68:	8003e200 	call	8003e20 <__gedf2>
 8000a6c:	0080030e 	bge	zero,r2,8000a7c <max+0xbc>
 8000a70:	e0800417 	ldw	r2,16(fp)
 8000a74:	e0c00517 	ldw	r3,20(fp)
 8000a78:	00000206 	br	8000a84 <max+0xc4>
 8000a7c:	e0bffa17 	ldw	r2,-24(fp)
 8000a80:	e0fffb17 	ldw	r3,-20(fp)
 8000a84:	e0bffa15 	stw	r2,-24(fp)
 8000a88:	e0fffb15 	stw	r3,-20(fp)
	return ans;
 8000a8c:	e0bffa17 	ldw	r2,-24(fp)
 8000a90:	e0fffb17 	ldw	r3,-20(fp)
 8000a94:	1009883a 	mov	r4,r2
 8000a98:	180b883a 	mov	r5,r3
}
 8000a9c:	2005883a 	mov	r2,r4
 8000aa0:	2807883a 	mov	r3,r5
 8000aa4:	e037883a 	mov	sp,fp
 8000aa8:	dfc00117 	ldw	ra,4(sp)
 8000aac:	df000017 	ldw	fp,0(sp)
 8000ab0:	dec00204 	addi	sp,sp,8
 8000ab4:	f800283a 	ret

08000ab8 <MaxPool1>:

void MaxPool1() {
 8000ab8:	defff704 	addi	sp,sp,-36
 8000abc:	dfc00815 	stw	ra,32(sp)
 8000ac0:	df000715 	stw	fp,28(sp)
 8000ac4:	df000704 	addi	fp,sp,28
	int i, j, k;
	for (i = 0; i < IMAGE_DIM / 2; i++)
 8000ac8:	e03ffd15 	stw	zero,-12(fp)
 8000acc:	00006f06 	br	8000c8c <MaxPool1+0x1d4>
		for (j = 0; j < IMAGE_DIM / 2; j++)
 8000ad0:	e03ffe15 	stw	zero,-8(fp)
 8000ad4:	00006706 	br	8000c74 <MaxPool1+0x1bc>
			for (k = 0; k < CONV1_OUT_DIM; k++)
 8000ad8:	e03fff15 	stw	zero,-4(fp)
 8000adc:	00005f06 	br	8000c5c <MaxPool1+0x1a4>
				Pool1_Image[i][j][k] = max(Conv1_Image[i * 2][j * 2][k],
 8000ae0:	e0bffd17 	ldw	r2,-12(fp)
 8000ae4:	1085883a 	add	r2,r2,r2
 8000ae8:	1007883a 	mov	r3,r2
 8000aec:	e0bffe17 	ldw	r2,-8(fp)
 8000af0:	1085883a 	add	r2,r2,r2
 8000af4:	1009883a 	mov	r4,r2
 8000af8:	008200f4 	movhi	r2,2051
 8000afc:	10a4dc04 	addi	r2,r2,-27792
 8000b00:	18c00724 	muli	r3,r3,28
 8000b04:	1907883a 	add	r3,r3,r4
 8000b08:	180890fa 	slli	r4,r3,3
 8000b0c:	e0ffff17 	ldw	r3,-4(fp)
 8000b10:	20c7883a 	add	r3,r4,r3
 8000b14:	180690fa 	slli	r3,r3,3
 8000b18:	10c5883a 	add	r2,r2,r3
 8000b1c:	12400017 	ldw	r9,0(r2)
 8000b20:	12800117 	ldw	r10,4(r2)
					Conv1_Image[i * 2 + 1][j * 2][k],
 8000b24:	e0bffd17 	ldw	r2,-12(fp)
 8000b28:	1085883a 	add	r2,r2,r2
 8000b2c:	10c00044 	addi	r3,r2,1
 8000b30:	e0bffe17 	ldw	r2,-8(fp)
 8000b34:	1085883a 	add	r2,r2,r2
 8000b38:	1009883a 	mov	r4,r2
void MaxPool1() {
	int i, j, k;
	for (i = 0; i < IMAGE_DIM / 2; i++)
		for (j = 0; j < IMAGE_DIM / 2; j++)
			for (k = 0; k < CONV1_OUT_DIM; k++)
				Pool1_Image[i][j][k] = max(Conv1_Image[i * 2][j * 2][k],
 8000b3c:	008200f4 	movhi	r2,2051
 8000b40:	10a4dc04 	addi	r2,r2,-27792
 8000b44:	18c00724 	muli	r3,r3,28
 8000b48:	1907883a 	add	r3,r3,r4
 8000b4c:	180890fa 	slli	r4,r3,3
 8000b50:	e0ffff17 	ldw	r3,-4(fp)
 8000b54:	20c7883a 	add	r3,r4,r3
 8000b58:	180690fa 	slli	r3,r3,3
 8000b5c:	10c5883a 	add	r2,r2,r3
 8000b60:	11c00017 	ldw	r7,0(r2)
 8000b64:	12000117 	ldw	r8,4(r2)
					Conv1_Image[i * 2 + 1][j * 2][k],
					Conv1_Image[i * 2][j * 2 + 1][k],
 8000b68:	e0bffd17 	ldw	r2,-12(fp)
 8000b6c:	1085883a 	add	r2,r2,r2
 8000b70:	1009883a 	mov	r4,r2
 8000b74:	e0bffe17 	ldw	r2,-8(fp)
 8000b78:	1085883a 	add	r2,r2,r2
 8000b7c:	10c00044 	addi	r3,r2,1
void MaxPool1() {
	int i, j, k;
	for (i = 0; i < IMAGE_DIM / 2; i++)
		for (j = 0; j < IMAGE_DIM / 2; j++)
			for (k = 0; k < CONV1_OUT_DIM; k++)
				Pool1_Image[i][j][k] = max(Conv1_Image[i * 2][j * 2][k],
 8000b80:	008200f4 	movhi	r2,2051
 8000b84:	10a4dc04 	addi	r2,r2,-27792
 8000b88:	21000724 	muli	r4,r4,28
 8000b8c:	20c7883a 	add	r3,r4,r3
 8000b90:	180890fa 	slli	r4,r3,3
 8000b94:	e0ffff17 	ldw	r3,-4(fp)
 8000b98:	20c7883a 	add	r3,r4,r3
 8000b9c:	180690fa 	slli	r3,r3,3
 8000ba0:	10c5883a 	add	r2,r2,r3
 8000ba4:	11000017 	ldw	r4,0(r2)
 8000ba8:	11400117 	ldw	r5,4(r2)
					Conv1_Image[i * 2 + 1][j * 2][k],
					Conv1_Image[i * 2][j * 2 + 1][k],
					Conv1_Image[i * 2 + 1][j * 2 + 1][k]);
 8000bac:	e0bffd17 	ldw	r2,-12(fp)
 8000bb0:	1085883a 	add	r2,r2,r2
 8000bb4:	11800044 	addi	r6,r2,1
 8000bb8:	e0bffe17 	ldw	r2,-8(fp)
 8000bbc:	1085883a 	add	r2,r2,r2
 8000bc0:	10c00044 	addi	r3,r2,1
void MaxPool1() {
	int i, j, k;
	for (i = 0; i < IMAGE_DIM / 2; i++)
		for (j = 0; j < IMAGE_DIM / 2; j++)
			for (k = 0; k < CONV1_OUT_DIM; k++)
				Pool1_Image[i][j][k] = max(Conv1_Image[i * 2][j * 2][k],
 8000bc4:	008200f4 	movhi	r2,2051
 8000bc8:	10a4dc04 	addi	r2,r2,-27792
 8000bcc:	31800724 	muli	r6,r6,28
 8000bd0:	30c7883a 	add	r3,r6,r3
 8000bd4:	180c90fa 	slli	r6,r3,3
 8000bd8:	e0ffff17 	ldw	r3,-4(fp)
 8000bdc:	30c7883a 	add	r3,r6,r3
 8000be0:	180690fa 	slli	r3,r3,3
 8000be4:	10cd883a 	add	r6,r2,r3
 8000be8:	30800017 	ldw	r2,0(r6)
 8000bec:	30c00117 	ldw	r3,4(r6)
 8000bf0:	d9000015 	stw	r4,0(sp)
 8000bf4:	d9400115 	stw	r5,4(sp)
 8000bf8:	d8800215 	stw	r2,8(sp)
 8000bfc:	d8c00315 	stw	r3,12(sp)
 8000c00:	4809883a 	mov	r4,r9
 8000c04:	500b883a 	mov	r5,r10
 8000c08:	380d883a 	mov	r6,r7
 8000c0c:	400f883a 	mov	r7,r8
 8000c10:	80009c00 	call	80009c0 <max>
 8000c14:	1009883a 	mov	r4,r2
 8000c18:	180b883a 	mov	r5,r3
 8000c1c:	008200b4 	movhi	r2,2050
 8000c20:	10989c04 	addi	r2,r2,25200
 8000c24:	e0fffd17 	ldw	r3,-12(fp)
 8000c28:	198003a4 	muli	r6,r3,14
 8000c2c:	e0fffe17 	ldw	r3,-8(fp)
 8000c30:	30c7883a 	add	r3,r6,r3
 8000c34:	180c90fa 	slli	r6,r3,3
 8000c38:	e0ffff17 	ldw	r3,-4(fp)
 8000c3c:	30c7883a 	add	r3,r6,r3
 8000c40:	180690fa 	slli	r3,r3,3
 8000c44:	10c5883a 	add	r2,r2,r3
 8000c48:	11000015 	stw	r4,0(r2)
 8000c4c:	11400115 	stw	r5,4(r2)

void MaxPool1() {
	int i, j, k;
	for (i = 0; i < IMAGE_DIM / 2; i++)
		for (j = 0; j < IMAGE_DIM / 2; j++)
			for (k = 0; k < CONV1_OUT_DIM; k++)
 8000c50:	e0bfff17 	ldw	r2,-4(fp)
 8000c54:	10800044 	addi	r2,r2,1
 8000c58:	e0bfff15 	stw	r2,-4(fp)
 8000c5c:	e0bfff17 	ldw	r2,-4(fp)
 8000c60:	10800210 	cmplti	r2,r2,8
 8000c64:	103f9e1e 	bne	r2,zero,8000ae0 <__alt_data_end+0xf8000ae0>
}

void MaxPool1() {
	int i, j, k;
	for (i = 0; i < IMAGE_DIM / 2; i++)
		for (j = 0; j < IMAGE_DIM / 2; j++)
 8000c68:	e0bffe17 	ldw	r2,-8(fp)
 8000c6c:	10800044 	addi	r2,r2,1
 8000c70:	e0bffe15 	stw	r2,-8(fp)
 8000c74:	e0bffe17 	ldw	r2,-8(fp)
 8000c78:	10800390 	cmplti	r2,r2,14
 8000c7c:	103f961e 	bne	r2,zero,8000ad8 <__alt_data_end+0xf8000ad8>
	return ans;
}

void MaxPool1() {
	int i, j, k;
	for (i = 0; i < IMAGE_DIM / 2; i++)
 8000c80:	e0bffd17 	ldw	r2,-12(fp)
 8000c84:	10800044 	addi	r2,r2,1
 8000c88:	e0bffd15 	stw	r2,-12(fp)
 8000c8c:	e0bffd17 	ldw	r2,-12(fp)
 8000c90:	10800390 	cmplti	r2,r2,14
 8000c94:	103f8e1e 	bne	r2,zero,8000ad0 <__alt_data_end+0xf8000ad0>
			for (k = 0; k < CONV1_OUT_DIM; k++)
				Pool1_Image[i][j][k] = max(Conv1_Image[i * 2][j * 2][k],
					Conv1_Image[i * 2 + 1][j * 2][k],
					Conv1_Image[i * 2][j * 2 + 1][k],
					Conv1_Image[i * 2 + 1][j * 2 + 1][k]);
}
 8000c98:	e037883a 	mov	sp,fp
 8000c9c:	dfc00117 	ldw	ra,4(sp)
 8000ca0:	df000017 	ldw	fp,0(sp)
 8000ca4:	dec00204 	addi	sp,sp,8
 8000ca8:	f800283a 	ret

08000cac <Conv2>:

void Conv2() {
 8000cac:	defff604 	addi	sp,sp,-40
 8000cb0:	dfc00915 	stw	ra,36(sp)
 8000cb4:	df000815 	stw	fp,32(sp)
 8000cb8:	df000804 	addi	fp,sp,32
	int i, j, k;
	int i2, j2, k2;
	double tmp_ans;
	for (i = 0; i < IMAGE_DIM / 2; i++)
 8000cbc:	e03ff815 	stw	zero,-32(fp)
 8000cc0:	0000a706 	br	8000f60 <Conv2+0x2b4>
		for (j = 0; j < IMAGE_DIM / 2; j++)
 8000cc4:	e03ff915 	stw	zero,-28(fp)
 8000cc8:	00009f06 	br	8000f48 <Conv2+0x29c>
			for (k = 0; k < CONV2_OUT_DIM; k++) {
 8000ccc:	e03ffa15 	stw	zero,-24(fp)
 8000cd0:	00009706 	br	8000f30 <Conv2+0x284>
				tmp_ans = 0.0;
 8000cd4:	e03ffe15 	stw	zero,-8(fp)
 8000cd8:	e03fff15 	stw	zero,-4(fp)
				for (i2 = -CONV_RANGE; i2 <= CONV_RANGE; i2++)
 8000cdc:	00bfffc4 	movi	r2,-1
 8000ce0:	e0bffb15 	stw	r2,-20(fp)
 8000ce4:	00005f06 	br	8000e64 <Conv2+0x1b8>
					for (j2 = -CONV_RANGE; j2 <= CONV_RANGE; j2++)
 8000ce8:	00bfffc4 	movi	r2,-1
 8000cec:	e0bffc15 	stw	r2,-16(fp)
 8000cf0:	00005606 	br	8000e4c <Conv2+0x1a0>
						for (k2 = -CONV_RANGE; k2 < CONV1_OUT_DIM; k2++)
 8000cf4:	00bfffc4 	movi	r2,-1
 8000cf8:	e0bffd15 	stw	r2,-12(fp)
 8000cfc:	00004d06 	br	8000e34 <Conv2+0x188>
							if (i + i2 >= 0 && j + j2 >= 0 && i + i2 < IMAGE_DIM / 2 && j + j2 < IMAGE_DIM / 2)
 8000d00:	e0fff817 	ldw	r3,-32(fp)
 8000d04:	e0bffb17 	ldw	r2,-20(fp)
 8000d08:	1885883a 	add	r2,r3,r2
 8000d0c:	10004616 	blt	r2,zero,8000e28 <Conv2+0x17c>
 8000d10:	e0fff917 	ldw	r3,-28(fp)
 8000d14:	e0bffc17 	ldw	r2,-16(fp)
 8000d18:	1885883a 	add	r2,r3,r2
 8000d1c:	10004216 	blt	r2,zero,8000e28 <Conv2+0x17c>
 8000d20:	e0fff817 	ldw	r3,-32(fp)
 8000d24:	e0bffb17 	ldw	r2,-20(fp)
 8000d28:	1885883a 	add	r2,r3,r2
 8000d2c:	10800388 	cmpgei	r2,r2,14
 8000d30:	10003d1e 	bne	r2,zero,8000e28 <Conv2+0x17c>
 8000d34:	e0fff917 	ldw	r3,-28(fp)
 8000d38:	e0bffc17 	ldw	r2,-16(fp)
 8000d3c:	1885883a 	add	r2,r3,r2
 8000d40:	10800388 	cmpgei	r2,r2,14
 8000d44:	1000381e 	bne	r2,zero,8000e28 <Conv2+0x17c>
								tmp_ans += Conv2_W[CONV_MID + i2][CONV_MID + j2][k2][k] * Pool1_Image[i + i2][j + j2][k2];
 8000d48:	e0bffb17 	ldw	r2,-20(fp)
 8000d4c:	11000044 	addi	r4,r2,1
 8000d50:	e0bffc17 	ldw	r2,-16(fp)
 8000d54:	11400044 	addi	r5,r2,1
 8000d58:	00c20134 	movhi	r3,2052
 8000d5c:	18e8e004 	addi	r3,r3,-23680
 8000d60:	2005883a 	mov	r2,r4
 8000d64:	1085883a 	add	r2,r2,r2
 8000d68:	1105883a 	add	r2,r2,r4
 8000d6c:	1145883a 	add	r2,r2,r5
 8000d70:	100890fa 	slli	r4,r2,3
 8000d74:	e0bffd17 	ldw	r2,-12(fp)
 8000d78:	2085883a 	add	r2,r4,r2
 8000d7c:	1085883a 	add	r2,r2,r2
 8000d80:	1089883a 	add	r4,r2,r2
 8000d84:	e0bffa17 	ldw	r2,-24(fp)
 8000d88:	2085883a 	add	r2,r4,r2
 8000d8c:	100490fa 	slli	r2,r2,3
 8000d90:	1885883a 	add	r2,r3,r2
 8000d94:	11400017 	ldw	r5,0(r2)
 8000d98:	11800117 	ldw	r6,4(r2)
 8000d9c:	e0fff817 	ldw	r3,-32(fp)
 8000da0:	e0bffb17 	ldw	r2,-20(fp)
 8000da4:	1889883a 	add	r4,r3,r2
 8000da8:	e0fff917 	ldw	r3,-28(fp)
 8000dac:	e0bffc17 	ldw	r2,-16(fp)
 8000db0:	1887883a 	add	r3,r3,r2
 8000db4:	008200b4 	movhi	r2,2050
 8000db8:	10989c04 	addi	r2,r2,25200
 8000dbc:	210003a4 	muli	r4,r4,14
 8000dc0:	20c7883a 	add	r3,r4,r3
 8000dc4:	180890fa 	slli	r4,r3,3
 8000dc8:	e0fffd17 	ldw	r3,-12(fp)
 8000dcc:	20c7883a 	add	r3,r4,r3
 8000dd0:	180690fa 	slli	r3,r3,3
 8000dd4:	10c9883a 	add	r4,r2,r3
 8000dd8:	20800017 	ldw	r2,0(r4)
 8000ddc:	20c00117 	ldw	r3,4(r4)
 8000de0:	2809883a 	mov	r4,r5
 8000de4:	300b883a 	mov	r5,r6
 8000de8:	100d883a 	mov	r6,r2
 8000dec:	180f883a 	mov	r7,r3
 8000df0:	8003fe00 	call	8003fe0 <__muldf3>
 8000df4:	1009883a 	mov	r4,r2
 8000df8:	180b883a 	mov	r5,r3
 8000dfc:	2005883a 	mov	r2,r4
 8000e00:	2807883a 	mov	r3,r5
 8000e04:	e13ffe17 	ldw	r4,-8(fp)
 8000e08:	e17fff17 	ldw	r5,-4(fp)
 8000e0c:	100d883a 	mov	r6,r2
 8000e10:	180f883a 	mov	r7,r3
 8000e14:	8002cb80 	call	8002cb8 <__adddf3>
 8000e18:	1009883a 	mov	r4,r2
 8000e1c:	180b883a 	mov	r5,r3
 8000e20:	e13ffe15 	stw	r4,-8(fp)
 8000e24:	e17fff15 	stw	r5,-4(fp)
		for (j = 0; j < IMAGE_DIM / 2; j++)
			for (k = 0; k < CONV2_OUT_DIM; k++) {
				tmp_ans = 0.0;
				for (i2 = -CONV_RANGE; i2 <= CONV_RANGE; i2++)
					for (j2 = -CONV_RANGE; j2 <= CONV_RANGE; j2++)
						for (k2 = -CONV_RANGE; k2 < CONV1_OUT_DIM; k2++)
 8000e28:	e0bffd17 	ldw	r2,-12(fp)
 8000e2c:	10800044 	addi	r2,r2,1
 8000e30:	e0bffd15 	stw	r2,-12(fp)
 8000e34:	e0bffd17 	ldw	r2,-12(fp)
 8000e38:	10800210 	cmplti	r2,r2,8
 8000e3c:	103fb01e 	bne	r2,zero,8000d00 <__alt_data_end+0xf8000d00>
	for (i = 0; i < IMAGE_DIM / 2; i++)
		for (j = 0; j < IMAGE_DIM / 2; j++)
			for (k = 0; k < CONV2_OUT_DIM; k++) {
				tmp_ans = 0.0;
				for (i2 = -CONV_RANGE; i2 <= CONV_RANGE; i2++)
					for (j2 = -CONV_RANGE; j2 <= CONV_RANGE; j2++)
 8000e40:	e0bffc17 	ldw	r2,-16(fp)
 8000e44:	10800044 	addi	r2,r2,1
 8000e48:	e0bffc15 	stw	r2,-16(fp)
 8000e4c:	e0bffc17 	ldw	r2,-16(fp)
 8000e50:	10800090 	cmplti	r2,r2,2
 8000e54:	103fa71e 	bne	r2,zero,8000cf4 <__alt_data_end+0xf8000cf4>
	double tmp_ans;
	for (i = 0; i < IMAGE_DIM / 2; i++)
		for (j = 0; j < IMAGE_DIM / 2; j++)
			for (k = 0; k < CONV2_OUT_DIM; k++) {
				tmp_ans = 0.0;
				for (i2 = -CONV_RANGE; i2 <= CONV_RANGE; i2++)
 8000e58:	e0bffb17 	ldw	r2,-20(fp)
 8000e5c:	10800044 	addi	r2,r2,1
 8000e60:	e0bffb15 	stw	r2,-20(fp)
 8000e64:	e0bffb17 	ldw	r2,-20(fp)
 8000e68:	10800090 	cmplti	r2,r2,2
 8000e6c:	103f9e1e 	bne	r2,zero,8000ce8 <__alt_data_end+0xf8000ce8>
					for (j2 = -CONV_RANGE; j2 <= CONV_RANGE; j2++)
						for (k2 = -CONV_RANGE; k2 < CONV1_OUT_DIM; k2++)
							if (i + i2 >= 0 && j + j2 >= 0 && i + i2 < IMAGE_DIM / 2 && j + j2 < IMAGE_DIM / 2)
								tmp_ans += Conv2_W[CONV_MID + i2][CONV_MID + j2][k2][k] * Pool1_Image[i + i2][j + j2][k2];
				tmp_ans += Conv2_B[k];
 8000e70:	00820034 	movhi	r2,2048
 8000e74:	109a0d04 	addi	r2,r2,26676
 8000e78:	e0fffa17 	ldw	r3,-24(fp)
 8000e7c:	180690fa 	slli	r3,r3,3
 8000e80:	10c9883a 	add	r4,r2,r3
 8000e84:	20800017 	ldw	r2,0(r4)
 8000e88:	20c00117 	ldw	r3,4(r4)
 8000e8c:	e13ffe17 	ldw	r4,-8(fp)
 8000e90:	e17fff17 	ldw	r5,-4(fp)
 8000e94:	100d883a 	mov	r6,r2
 8000e98:	180f883a 	mov	r7,r3
 8000e9c:	8002cb80 	call	8002cb8 <__adddf3>
 8000ea0:	1009883a 	mov	r4,r2
 8000ea4:	180b883a 	mov	r5,r3
 8000ea8:	e13ffe15 	stw	r4,-8(fp)
 8000eac:	e17fff15 	stw	r5,-4(fp)
				tmp_ans = RELU(tmp_ans);
 8000eb0:	e13ffe17 	ldw	r4,-8(fp)
 8000eb4:	e17fff17 	ldw	r5,-4(fp)
 8000eb8:	000d883a 	mov	r6,zero
 8000ebc:	000f883a 	mov	r7,zero
 8000ec0:	8003e200 	call	8003e20 <__gedf2>
 8000ec4:	0080030e 	bge	zero,r2,8000ed4 <Conv2+0x228>
 8000ec8:	e0bffe17 	ldw	r2,-8(fp)
 8000ecc:	e0ffff17 	ldw	r3,-4(fp)
 8000ed0:	00000206 	br	8000edc <Conv2+0x230>
 8000ed4:	0005883a 	mov	r2,zero
 8000ed8:	0007883a 	mov	r3,zero
 8000edc:	e0bffe15 	stw	r2,-8(fp)
 8000ee0:	e0ffff15 	stw	r3,-4(fp)
				Conv2_Image[i][j][k] = tmp_ans;
 8000ee4:	008203b4 	movhi	r2,2062
 8000ee8:	10b86804 	addi	r2,r2,-7776
 8000eec:	e0fff817 	ldw	r3,-32(fp)
 8000ef0:	190003a4 	muli	r4,r3,14
 8000ef4:	e0fff917 	ldw	r3,-28(fp)
 8000ef8:	20c7883a 	add	r3,r4,r3
 8000efc:	18c7883a 	add	r3,r3,r3
 8000f00:	18c9883a 	add	r4,r3,r3
 8000f04:	e0fffa17 	ldw	r3,-24(fp)
 8000f08:	20c7883a 	add	r3,r4,r3
 8000f0c:	180690fa 	slli	r3,r3,3
 8000f10:	10c5883a 	add	r2,r2,r3
 8000f14:	e0fffe17 	ldw	r3,-8(fp)
 8000f18:	10c00015 	stw	r3,0(r2)
 8000f1c:	e0ffff17 	ldw	r3,-4(fp)
 8000f20:	10c00115 	stw	r3,4(r2)
	int i, j, k;
	int i2, j2, k2;
	double tmp_ans;
	for (i = 0; i < IMAGE_DIM / 2; i++)
		for (j = 0; j < IMAGE_DIM / 2; j++)
			for (k = 0; k < CONV2_OUT_DIM; k++) {
 8000f24:	e0bffa17 	ldw	r2,-24(fp)
 8000f28:	10800044 	addi	r2,r2,1
 8000f2c:	e0bffa15 	stw	r2,-24(fp)
 8000f30:	e0bffa17 	ldw	r2,-24(fp)
 8000f34:	10800110 	cmplti	r2,r2,4
 8000f38:	103f661e 	bne	r2,zero,8000cd4 <__alt_data_end+0xf8000cd4>
void Conv2() {
	int i, j, k;
	int i2, j2, k2;
	double tmp_ans;
	for (i = 0; i < IMAGE_DIM / 2; i++)
		for (j = 0; j < IMAGE_DIM / 2; j++)
 8000f3c:	e0bff917 	ldw	r2,-28(fp)
 8000f40:	10800044 	addi	r2,r2,1
 8000f44:	e0bff915 	stw	r2,-28(fp)
 8000f48:	e0bff917 	ldw	r2,-28(fp)
 8000f4c:	10800390 	cmplti	r2,r2,14
 8000f50:	103f5e1e 	bne	r2,zero,8000ccc <__alt_data_end+0xf8000ccc>

void Conv2() {
	int i, j, k;
	int i2, j2, k2;
	double tmp_ans;
	for (i = 0; i < IMAGE_DIM / 2; i++)
 8000f54:	e0bff817 	ldw	r2,-32(fp)
 8000f58:	10800044 	addi	r2,r2,1
 8000f5c:	e0bff815 	stw	r2,-32(fp)
 8000f60:	e0bff817 	ldw	r2,-32(fp)
 8000f64:	10800390 	cmplti	r2,r2,14
 8000f68:	103f561e 	bne	r2,zero,8000cc4 <__alt_data_end+0xf8000cc4>
								tmp_ans += Conv2_W[CONV_MID + i2][CONV_MID + j2][k2][k] * Pool1_Image[i + i2][j + j2][k2];
				tmp_ans += Conv2_B[k];
				tmp_ans = RELU(tmp_ans);
				Conv2_Image[i][j][k] = tmp_ans;
			}
}
 8000f6c:	e037883a 	mov	sp,fp
 8000f70:	dfc00117 	ldw	ra,4(sp)
 8000f74:	df000017 	ldw	fp,0(sp)
 8000f78:	dec00204 	addi	sp,sp,8
 8000f7c:	f800283a 	ret

08000f80 <MaxPool2>:

void MaxPool2() {
 8000f80:	defff704 	addi	sp,sp,-36
 8000f84:	dfc00815 	stw	ra,32(sp)
 8000f88:	df000715 	stw	fp,28(sp)
 8000f8c:	df000704 	addi	fp,sp,28
	int i, j, k;
	for (i = 0; i < IMAGE_DIM / 4; i++)
 8000f90:	e03ffd15 	stw	zero,-12(fp)
 8000f94:	00007406 	br	8001168 <MaxPool2+0x1e8>
		for (j = 0; j < IMAGE_DIM / 4; j++)
 8000f98:	e03ffe15 	stw	zero,-8(fp)
 8000f9c:	00006c06 	br	8001150 <MaxPool2+0x1d0>
			for (k = 0; k < CONV2_OUT_DIM; k++)
 8000fa0:	e03fff15 	stw	zero,-4(fp)
 8000fa4:	00006406 	br	8001138 <MaxPool2+0x1b8>
				Pool2_Image[i][j][k] = max(Conv2_Image[i * 2][j * 2][k],
 8000fa8:	e0bffd17 	ldw	r2,-12(fp)
 8000fac:	1085883a 	add	r2,r2,r2
 8000fb0:	1007883a 	mov	r3,r2
 8000fb4:	e0bffe17 	ldw	r2,-8(fp)
 8000fb8:	1085883a 	add	r2,r2,r2
 8000fbc:	1009883a 	mov	r4,r2
 8000fc0:	008203b4 	movhi	r2,2062
 8000fc4:	10b86804 	addi	r2,r2,-7776
 8000fc8:	18c003a4 	muli	r3,r3,14
 8000fcc:	1907883a 	add	r3,r3,r4
 8000fd0:	18c7883a 	add	r3,r3,r3
 8000fd4:	18c9883a 	add	r4,r3,r3
 8000fd8:	e0ffff17 	ldw	r3,-4(fp)
 8000fdc:	20c7883a 	add	r3,r4,r3
 8000fe0:	180690fa 	slli	r3,r3,3
 8000fe4:	10c5883a 	add	r2,r2,r3
 8000fe8:	12400017 	ldw	r9,0(r2)
 8000fec:	12800117 	ldw	r10,4(r2)
					Conv2_Image[i * 2 + 1][j * 2][k],
 8000ff0:	e0bffd17 	ldw	r2,-12(fp)
 8000ff4:	1085883a 	add	r2,r2,r2
 8000ff8:	10c00044 	addi	r3,r2,1
 8000ffc:	e0bffe17 	ldw	r2,-8(fp)
 8001000:	1085883a 	add	r2,r2,r2
 8001004:	1009883a 	mov	r4,r2
void MaxPool2() {
	int i, j, k;
	for (i = 0; i < IMAGE_DIM / 4; i++)
		for (j = 0; j < IMAGE_DIM / 4; j++)
			for (k = 0; k < CONV2_OUT_DIM; k++)
				Pool2_Image[i][j][k] = max(Conv2_Image[i * 2][j * 2][k],
 8001008:	008203b4 	movhi	r2,2062
 800100c:	10b86804 	addi	r2,r2,-7776
 8001010:	18c003a4 	muli	r3,r3,14
 8001014:	1907883a 	add	r3,r3,r4
 8001018:	18c7883a 	add	r3,r3,r3
 800101c:	18c9883a 	add	r4,r3,r3
 8001020:	e0ffff17 	ldw	r3,-4(fp)
 8001024:	20c7883a 	add	r3,r4,r3
 8001028:	180690fa 	slli	r3,r3,3
 800102c:	10c5883a 	add	r2,r2,r3
 8001030:	11c00017 	ldw	r7,0(r2)
 8001034:	12000117 	ldw	r8,4(r2)
					Conv2_Image[i * 2 + 1][j * 2][k],
					Conv2_Image[i * 2][j * 2 + 1][k],
 8001038:	e0bffd17 	ldw	r2,-12(fp)
 800103c:	1085883a 	add	r2,r2,r2
 8001040:	1009883a 	mov	r4,r2
 8001044:	e0bffe17 	ldw	r2,-8(fp)
 8001048:	1085883a 	add	r2,r2,r2
 800104c:	10c00044 	addi	r3,r2,1
void MaxPool2() {
	int i, j, k;
	for (i = 0; i < IMAGE_DIM / 4; i++)
		for (j = 0; j < IMAGE_DIM / 4; j++)
			for (k = 0; k < CONV2_OUT_DIM; k++)
				Pool2_Image[i][j][k] = max(Conv2_Image[i * 2][j * 2][k],
 8001050:	008203b4 	movhi	r2,2062
 8001054:	10b86804 	addi	r2,r2,-7776
 8001058:	210003a4 	muli	r4,r4,14
 800105c:	20c7883a 	add	r3,r4,r3
 8001060:	18c7883a 	add	r3,r3,r3
 8001064:	18c9883a 	add	r4,r3,r3
 8001068:	e0ffff17 	ldw	r3,-4(fp)
 800106c:	20c7883a 	add	r3,r4,r3
 8001070:	180690fa 	slli	r3,r3,3
 8001074:	10c5883a 	add	r2,r2,r3
 8001078:	11000017 	ldw	r4,0(r2)
 800107c:	11400117 	ldw	r5,4(r2)
					Conv2_Image[i * 2 + 1][j * 2][k],
					Conv2_Image[i * 2][j * 2 + 1][k],
					Conv2_Image[i * 2 + 1][j * 2 + 1][k]);
 8001080:	e0bffd17 	ldw	r2,-12(fp)
 8001084:	1085883a 	add	r2,r2,r2
 8001088:	11800044 	addi	r6,r2,1
 800108c:	e0bffe17 	ldw	r2,-8(fp)
 8001090:	1085883a 	add	r2,r2,r2
 8001094:	10c00044 	addi	r3,r2,1
void MaxPool2() {
	int i, j, k;
	for (i = 0; i < IMAGE_DIM / 4; i++)
		for (j = 0; j < IMAGE_DIM / 4; j++)
			for (k = 0; k < CONV2_OUT_DIM; k++)
				Pool2_Image[i][j][k] = max(Conv2_Image[i * 2][j * 2][k],
 8001098:	008203b4 	movhi	r2,2062
 800109c:	10b86804 	addi	r2,r2,-7776
 80010a0:	318003a4 	muli	r6,r6,14
 80010a4:	30c7883a 	add	r3,r6,r3
 80010a8:	18c7883a 	add	r3,r3,r3
 80010ac:	18cd883a 	add	r6,r3,r3
 80010b0:	e0ffff17 	ldw	r3,-4(fp)
 80010b4:	30c7883a 	add	r3,r6,r3
 80010b8:	180690fa 	slli	r3,r3,3
 80010bc:	10cd883a 	add	r6,r2,r3
 80010c0:	30800017 	ldw	r2,0(r6)
 80010c4:	30c00117 	ldw	r3,4(r6)
 80010c8:	d9000015 	stw	r4,0(sp)
 80010cc:	d9400115 	stw	r5,4(sp)
 80010d0:	d8800215 	stw	r2,8(sp)
 80010d4:	d8c00315 	stw	r3,12(sp)
 80010d8:	4809883a 	mov	r4,r9
 80010dc:	500b883a 	mov	r5,r10
 80010e0:	380d883a 	mov	r6,r7
 80010e4:	400f883a 	mov	r7,r8
 80010e8:	80009c00 	call	80009c0 <max>
 80010ec:	1009883a 	mov	r4,r2
 80010f0:	180b883a 	mov	r5,r3
 80010f4:	008203b4 	movhi	r2,2062
 80010f8:	10be8804 	addi	r2,r2,-1504
 80010fc:	e0fffd17 	ldw	r3,-12(fp)
 8001100:	198001e4 	muli	r6,r3,7
 8001104:	e0fffe17 	ldw	r3,-8(fp)
 8001108:	30c7883a 	add	r3,r6,r3
 800110c:	18c7883a 	add	r3,r3,r3
 8001110:	18cd883a 	add	r6,r3,r3
 8001114:	e0ffff17 	ldw	r3,-4(fp)
 8001118:	30c7883a 	add	r3,r6,r3
 800111c:	180690fa 	slli	r3,r3,3
 8001120:	10c5883a 	add	r2,r2,r3
 8001124:	11000015 	stw	r4,0(r2)
 8001128:	11400115 	stw	r5,4(r2)

void MaxPool2() {
	int i, j, k;
	for (i = 0; i < IMAGE_DIM / 4; i++)
		for (j = 0; j < IMAGE_DIM / 4; j++)
			for (k = 0; k < CONV2_OUT_DIM; k++)
 800112c:	e0bfff17 	ldw	r2,-4(fp)
 8001130:	10800044 	addi	r2,r2,1
 8001134:	e0bfff15 	stw	r2,-4(fp)
 8001138:	e0bfff17 	ldw	r2,-4(fp)
 800113c:	10800110 	cmplti	r2,r2,4
 8001140:	103f991e 	bne	r2,zero,8000fa8 <__alt_data_end+0xf8000fa8>
}

void MaxPool2() {
	int i, j, k;
	for (i = 0; i < IMAGE_DIM / 4; i++)
		for (j = 0; j < IMAGE_DIM / 4; j++)
 8001144:	e0bffe17 	ldw	r2,-8(fp)
 8001148:	10800044 	addi	r2,r2,1
 800114c:	e0bffe15 	stw	r2,-8(fp)
 8001150:	e0bffe17 	ldw	r2,-8(fp)
 8001154:	108001d0 	cmplti	r2,r2,7
 8001158:	103f911e 	bne	r2,zero,8000fa0 <__alt_data_end+0xf8000fa0>
			}
}

void MaxPool2() {
	int i, j, k;
	for (i = 0; i < IMAGE_DIM / 4; i++)
 800115c:	e0bffd17 	ldw	r2,-12(fp)
 8001160:	10800044 	addi	r2,r2,1
 8001164:	e0bffd15 	stw	r2,-12(fp)
 8001168:	e0bffd17 	ldw	r2,-12(fp)
 800116c:	108001d0 	cmplti	r2,r2,7
 8001170:	103f891e 	bne	r2,zero,8000f98 <__alt_data_end+0xf8000f98>
			for (k = 0; k < CONV2_OUT_DIM; k++)
				Pool2_Image[i][j][k] = max(Conv2_Image[i * 2][j * 2][k],
					Conv2_Image[i * 2 + 1][j * 2][k],
					Conv2_Image[i * 2][j * 2 + 1][k],
					Conv2_Image[i * 2 + 1][j * 2 + 1][k]);
}
 8001174:	e037883a 	mov	sp,fp
 8001178:	dfc00117 	ldw	ra,4(sp)
 800117c:	df000017 	ldw	fp,0(sp)
 8001180:	dec00204 	addi	sp,sp,8
 8001184:	f800283a 	ret

08001188 <Flatten>:

void Flatten() {
 8001188:	defffc04 	addi	sp,sp,-16
 800118c:	df000315 	stw	fp,12(sp)
 8001190:	df000304 	addi	fp,sp,12
	int i, j, k;
	for (i = 0; i < IMAGE_DIM / 4; i++)
 8001194:	e03ffd15 	stw	zero,-12(fp)
 8001198:	00003006 	br	800125c <Flatten+0xd4>
		for (j = 0; j < IMAGE_DIM / 4; j++)
 800119c:	e03ffe15 	stw	zero,-8(fp)
 80011a0:	00002806 	br	8001244 <Flatten+0xbc>
			for (k = 0; k < CONV2_OUT_DIM; k++)
 80011a4:	e03fff15 	stw	zero,-4(fp)
 80011a8:	00002006 	br	800122c <Flatten+0xa4>
				Flat_Image[i*(IMAGE_DIM / 4)*CONV2_OUT_DIM + j * CONV2_OUT_DIM + k] = Pool2_Image[i][j][k];
 80011ac:	e0bffd17 	ldw	r2,-12(fp)
 80011b0:	10c001e4 	muli	r3,r2,7
 80011b4:	e0bffe17 	ldw	r2,-8(fp)
 80011b8:	1885883a 	add	r2,r3,r2
 80011bc:	1085883a 	add	r2,r2,r2
 80011c0:	1085883a 	add	r2,r2,r2
 80011c4:	1007883a 	mov	r3,r2
 80011c8:	e0bfff17 	ldw	r2,-4(fp)
 80011cc:	188b883a 	add	r5,r3,r2
 80011d0:	008203b4 	movhi	r2,2062
 80011d4:	10be8804 	addi	r2,r2,-1504
 80011d8:	e0fffd17 	ldw	r3,-12(fp)
 80011dc:	190001e4 	muli	r4,r3,7
 80011e0:	e0fffe17 	ldw	r3,-8(fp)
 80011e4:	20c7883a 	add	r3,r4,r3
 80011e8:	18c7883a 	add	r3,r3,r3
 80011ec:	18c9883a 	add	r4,r3,r3
 80011f0:	e0ffff17 	ldw	r3,-4(fp)
 80011f4:	20c7883a 	add	r3,r4,r3
 80011f8:	180690fa 	slli	r3,r3,3
 80011fc:	10c9883a 	add	r4,r2,r3
 8001200:	20800017 	ldw	r2,0(r4)
 8001204:	20c00117 	ldw	r3,4(r4)
 8001208:	01020134 	movhi	r4,2052
 800120c:	212b2004 	addi	r4,r4,-21376
 8001210:	280a90fa 	slli	r5,r5,3
 8001214:	2149883a 	add	r4,r4,r5
 8001218:	20800015 	stw	r2,0(r4)
 800121c:	20c00115 	stw	r3,4(r4)

void Flatten() {
	int i, j, k;
	for (i = 0; i < IMAGE_DIM / 4; i++)
		for (j = 0; j < IMAGE_DIM / 4; j++)
			for (k = 0; k < CONV2_OUT_DIM; k++)
 8001220:	e0bfff17 	ldw	r2,-4(fp)
 8001224:	10800044 	addi	r2,r2,1
 8001228:	e0bfff15 	stw	r2,-4(fp)
 800122c:	e0bfff17 	ldw	r2,-4(fp)
 8001230:	10800110 	cmplti	r2,r2,4
 8001234:	103fdd1e 	bne	r2,zero,80011ac <__alt_data_end+0xf80011ac>
}

void Flatten() {
	int i, j, k;
	for (i = 0; i < IMAGE_DIM / 4; i++)
		for (j = 0; j < IMAGE_DIM / 4; j++)
 8001238:	e0bffe17 	ldw	r2,-8(fp)
 800123c:	10800044 	addi	r2,r2,1
 8001240:	e0bffe15 	stw	r2,-8(fp)
 8001244:	e0bffe17 	ldw	r2,-8(fp)
 8001248:	108001d0 	cmplti	r2,r2,7
 800124c:	103fd51e 	bne	r2,zero,80011a4 <__alt_data_end+0xf80011a4>
					Conv2_Image[i * 2 + 1][j * 2 + 1][k]);
}

void Flatten() {
	int i, j, k;
	for (i = 0; i < IMAGE_DIM / 4; i++)
 8001250:	e0bffd17 	ldw	r2,-12(fp)
 8001254:	10800044 	addi	r2,r2,1
 8001258:	e0bffd15 	stw	r2,-12(fp)
 800125c:	e0bffd17 	ldw	r2,-12(fp)
 8001260:	108001d0 	cmplti	r2,r2,7
 8001264:	103fcd1e 	bne	r2,zero,800119c <__alt_data_end+0xf800119c>
		for (j = 0; j < IMAGE_DIM / 4; j++)
			for (k = 0; k < CONV2_OUT_DIM; k++)
				Flat_Image[i*(IMAGE_DIM / 4)*CONV2_OUT_DIM + j * CONV2_OUT_DIM + k] = Pool2_Image[i][j][k];
}
 8001268:	e037883a 	mov	sp,fp
 800126c:	df000017 	ldw	fp,0(sp)
 8001270:	dec00104 	addi	sp,sp,4
 8001274:	f800283a 	ret

08001278 <Fc1>:

void Fc1() {
 8001278:	defffa04 	addi	sp,sp,-24
 800127c:	dfc00515 	stw	ra,20(sp)
 8001280:	df000415 	stw	fp,16(sp)
 8001284:	df000404 	addi	fp,sp,16
	int i, j;
	double tmp_ans;
	for (i = 0; i < FC1_OUT_DIM; i++) {
 8001288:	e03ffc15 	stw	zero,-16(fp)
 800128c:	00005606 	br	80013e8 <Fc1+0x170>
		tmp_ans = 0.0;
 8001290:	e03ffe15 	stw	zero,-8(fp)
 8001294:	e03fff15 	stw	zero,-4(fp)
		for (j = 0; j < (IMAGE_DIM / 4)*(IMAGE_DIM / 4)*CONV2_OUT_DIM; j++)
 8001298:	e03ffd15 	stw	zero,-12(fp)
 800129c:	00002606 	br	8001338 <Fc1+0xc0>
			tmp_ans += Flat_Image[j] * Fc1_W[j][i];
 80012a0:	00820134 	movhi	r2,2052
 80012a4:	10ab2004 	addi	r2,r2,-21376
 80012a8:	e0fffd17 	ldw	r3,-12(fp)
 80012ac:	180690fa 	slli	r3,r3,3
 80012b0:	10c5883a 	add	r2,r2,r3
 80012b4:	11400017 	ldw	r5,0(r2)
 80012b8:	11800117 	ldw	r6,4(r2)
 80012bc:	008201f4 	movhi	r2,2055
 80012c0:	108de804 	addi	r2,r2,14240
 80012c4:	e0fffd17 	ldw	r3,-12(fp)
 80012c8:	1808917a 	slli	r4,r3,5
 80012cc:	e0fffc17 	ldw	r3,-16(fp)
 80012d0:	20c7883a 	add	r3,r4,r3
 80012d4:	180690fa 	slli	r3,r3,3
 80012d8:	10c9883a 	add	r4,r2,r3
 80012dc:	20800017 	ldw	r2,0(r4)
 80012e0:	20c00117 	ldw	r3,4(r4)
 80012e4:	2809883a 	mov	r4,r5
 80012e8:	300b883a 	mov	r5,r6
 80012ec:	100d883a 	mov	r6,r2
 80012f0:	180f883a 	mov	r7,r3
 80012f4:	8003fe00 	call	8003fe0 <__muldf3>
 80012f8:	1009883a 	mov	r4,r2
 80012fc:	180b883a 	mov	r5,r3
 8001300:	2005883a 	mov	r2,r4
 8001304:	2807883a 	mov	r3,r5
 8001308:	e13ffe17 	ldw	r4,-8(fp)
 800130c:	e17fff17 	ldw	r5,-4(fp)
 8001310:	100d883a 	mov	r6,r2
 8001314:	180f883a 	mov	r7,r3
 8001318:	8002cb80 	call	8002cb8 <__adddf3>
 800131c:	1009883a 	mov	r4,r2
 8001320:	180b883a 	mov	r5,r3
 8001324:	e13ffe15 	stw	r4,-8(fp)
 8001328:	e17fff15 	stw	r5,-4(fp)
void Fc1() {
	int i, j;
	double tmp_ans;
	for (i = 0; i < FC1_OUT_DIM; i++) {
		tmp_ans = 0.0;
		for (j = 0; j < (IMAGE_DIM / 4)*(IMAGE_DIM / 4)*CONV2_OUT_DIM; j++)
 800132c:	e0bffd17 	ldw	r2,-12(fp)
 8001330:	10800044 	addi	r2,r2,1
 8001334:	e0bffd15 	stw	r2,-12(fp)
 8001338:	e0bffd17 	ldw	r2,-12(fp)
 800133c:	10803110 	cmplti	r2,r2,196
 8001340:	103fd71e 	bne	r2,zero,80012a0 <__alt_data_end+0xf80012a0>
			tmp_ans += Flat_Image[j] * Fc1_W[j][i];
		tmp_ans += Fc1_B[i];
 8001344:	00820034 	movhi	r2,2048
 8001348:	109a1504 	addi	r2,r2,26708
 800134c:	e0fffc17 	ldw	r3,-16(fp)
 8001350:	180690fa 	slli	r3,r3,3
 8001354:	10c9883a 	add	r4,r2,r3
 8001358:	20800017 	ldw	r2,0(r4)
 800135c:	20c00117 	ldw	r3,4(r4)
 8001360:	e13ffe17 	ldw	r4,-8(fp)
 8001364:	e17fff17 	ldw	r5,-4(fp)
 8001368:	100d883a 	mov	r6,r2
 800136c:	180f883a 	mov	r7,r3
 8001370:	8002cb80 	call	8002cb8 <__adddf3>
 8001374:	1009883a 	mov	r4,r2
 8001378:	180b883a 	mov	r5,r3
 800137c:	e13ffe15 	stw	r4,-8(fp)
 8001380:	e17fff15 	stw	r5,-4(fp)
		tmp_ans = RELU(tmp_ans);
 8001384:	e13ffe17 	ldw	r4,-8(fp)
 8001388:	e17fff17 	ldw	r5,-4(fp)
 800138c:	000d883a 	mov	r6,zero
 8001390:	000f883a 	mov	r7,zero
 8001394:	8003e200 	call	8003e20 <__gedf2>
 8001398:	0080030e 	bge	zero,r2,80013a8 <Fc1+0x130>
 800139c:	e0bffe17 	ldw	r2,-8(fp)
 80013a0:	e0ffff17 	ldw	r3,-4(fp)
 80013a4:	00000206 	br	80013b0 <Fc1+0x138>
 80013a8:	0005883a 	mov	r2,zero
 80013ac:	0007883a 	mov	r3,zero
 80013b0:	e0bffe15 	stw	r2,-8(fp)
 80013b4:	e0ffff15 	stw	r3,-4(fp)
		FC1_Image[i] = tmp_ans;
 80013b8:	008201f4 	movhi	r2,2055
 80013bc:	108da804 	addi	r2,r2,13984
 80013c0:	e0fffc17 	ldw	r3,-16(fp)
 80013c4:	180690fa 	slli	r3,r3,3
 80013c8:	10c5883a 	add	r2,r2,r3
 80013cc:	e0fffe17 	ldw	r3,-8(fp)
 80013d0:	10c00015 	stw	r3,0(r2)
 80013d4:	e0ffff17 	ldw	r3,-4(fp)
 80013d8:	10c00115 	stw	r3,4(r2)
}

void Fc1() {
	int i, j;
	double tmp_ans;
	for (i = 0; i < FC1_OUT_DIM; i++) {
 80013dc:	e0bffc17 	ldw	r2,-16(fp)
 80013e0:	10800044 	addi	r2,r2,1
 80013e4:	e0bffc15 	stw	r2,-16(fp)
 80013e8:	e0bffc17 	ldw	r2,-16(fp)
 80013ec:	10800810 	cmplti	r2,r2,32
 80013f0:	103fa71e 	bne	r2,zero,8001290 <__alt_data_end+0xf8001290>
			tmp_ans += Flat_Image[j] * Fc1_W[j][i];
		tmp_ans += Fc1_B[i];
		tmp_ans = RELU(tmp_ans);
		FC1_Image[i] = tmp_ans;
	}
}
 80013f4:	e037883a 	mov	sp,fp
 80013f8:	dfc00117 	ldw	ra,4(sp)
 80013fc:	df000017 	ldw	fp,0(sp)
 8001400:	dec00204 	addi	sp,sp,8
 8001404:	f800283a 	ret

08001408 <Fc2>:

void Fc2() {
 8001408:	defffa04 	addi	sp,sp,-24
 800140c:	dfc00515 	stw	ra,20(sp)
 8001410:	df000415 	stw	fp,16(sp)
 8001414:	df000404 	addi	fp,sp,16
	int i, j;
	double tmp_ans;
	for (i = 0; i < FC2_OUT_DIM; i++) {
 8001418:	e03ffc15 	stw	zero,-16(fp)
 800141c:	00004906 	br	8001544 <Fc2+0x13c>
		tmp_ans = 0.0;
 8001420:	e03ffe15 	stw	zero,-8(fp)
 8001424:	e03fff15 	stw	zero,-4(fp)
		for (j = 0; j < FC1_OUT_DIM; j++)
 8001428:	e03ffd15 	stw	zero,-12(fp)
 800142c:	00002606 	br	80014c8 <Fc2+0xc0>
			tmp_ans += FC1_Image[j] * Fc2_W[j][i];
 8001430:	008201f4 	movhi	r2,2055
 8001434:	108da804 	addi	r2,r2,13984
 8001438:	e0fffd17 	ldw	r3,-12(fp)
 800143c:	180690fa 	slli	r3,r3,3
 8001440:	10c5883a 	add	r2,r2,r3
 8001444:	11400017 	ldw	r5,0(r2)
 8001448:	11800117 	ldw	r6,4(r2)
 800144c:	008203b4 	movhi	r2,2062
 8001450:	10b5e804 	addi	r2,r2,-10336
 8001454:	e0fffd17 	ldw	r3,-12(fp)
 8001458:	190002a4 	muli	r4,r3,10
 800145c:	e0fffc17 	ldw	r3,-16(fp)
 8001460:	20c7883a 	add	r3,r4,r3
 8001464:	180690fa 	slli	r3,r3,3
 8001468:	10c9883a 	add	r4,r2,r3
 800146c:	20800017 	ldw	r2,0(r4)
 8001470:	20c00117 	ldw	r3,4(r4)
 8001474:	2809883a 	mov	r4,r5
 8001478:	300b883a 	mov	r5,r6
 800147c:	100d883a 	mov	r6,r2
 8001480:	180f883a 	mov	r7,r3
 8001484:	8003fe00 	call	8003fe0 <__muldf3>
 8001488:	1009883a 	mov	r4,r2
 800148c:	180b883a 	mov	r5,r3
 8001490:	2005883a 	mov	r2,r4
 8001494:	2807883a 	mov	r3,r5
 8001498:	e13ffe17 	ldw	r4,-8(fp)
 800149c:	e17fff17 	ldw	r5,-4(fp)
 80014a0:	100d883a 	mov	r6,r2
 80014a4:	180f883a 	mov	r7,r3
 80014a8:	8002cb80 	call	8002cb8 <__adddf3>
 80014ac:	1009883a 	mov	r4,r2
 80014b0:	180b883a 	mov	r5,r3
 80014b4:	e13ffe15 	stw	r4,-8(fp)
 80014b8:	e17fff15 	stw	r5,-4(fp)
void Fc2() {
	int i, j;
	double tmp_ans;
	for (i = 0; i < FC2_OUT_DIM; i++) {
		tmp_ans = 0.0;
		for (j = 0; j < FC1_OUT_DIM; j++)
 80014bc:	e0bffd17 	ldw	r2,-12(fp)
 80014c0:	10800044 	addi	r2,r2,1
 80014c4:	e0bffd15 	stw	r2,-12(fp)
 80014c8:	e0bffd17 	ldw	r2,-12(fp)
 80014cc:	10800810 	cmplti	r2,r2,32
 80014d0:	103fd71e 	bne	r2,zero,8001430 <__alt_data_end+0xf8001430>
			tmp_ans += FC1_Image[j] * Fc2_W[j][i];
		tmp_ans += Fc2_B[i];
 80014d4:	00820034 	movhi	r2,2048
 80014d8:	109a5504 	addi	r2,r2,26964
 80014dc:	e0fffc17 	ldw	r3,-16(fp)
 80014e0:	180690fa 	slli	r3,r3,3
 80014e4:	10c9883a 	add	r4,r2,r3
 80014e8:	20800017 	ldw	r2,0(r4)
 80014ec:	20c00117 	ldw	r3,4(r4)
 80014f0:	e13ffe17 	ldw	r4,-8(fp)
 80014f4:	e17fff17 	ldw	r5,-4(fp)
 80014f8:	100d883a 	mov	r6,r2
 80014fc:	180f883a 	mov	r7,r3
 8001500:	8002cb80 	call	8002cb8 <__adddf3>
 8001504:	1009883a 	mov	r4,r2
 8001508:	180b883a 	mov	r5,r3
 800150c:	e13ffe15 	stw	r4,-8(fp)
 8001510:	e17fff15 	stw	r5,-4(fp)
		FC2_Image[i] = tmp_ans;
 8001514:	00820134 	movhi	r2,2052
 8001518:	10a2ac04 	addi	r2,r2,-30032
 800151c:	e0fffc17 	ldw	r3,-16(fp)
 8001520:	180690fa 	slli	r3,r3,3
 8001524:	10c5883a 	add	r2,r2,r3
 8001528:	e0fffe17 	ldw	r3,-8(fp)
 800152c:	10c00015 	stw	r3,0(r2)
 8001530:	e0ffff17 	ldw	r3,-4(fp)
 8001534:	10c00115 	stw	r3,4(r2)
}

void Fc2() {
	int i, j;
	double tmp_ans;
	for (i = 0; i < FC2_OUT_DIM; i++) {
 8001538:	e0bffc17 	ldw	r2,-16(fp)
 800153c:	10800044 	addi	r2,r2,1
 8001540:	e0bffc15 	stw	r2,-16(fp)
 8001544:	e0bffc17 	ldw	r2,-16(fp)
 8001548:	10800290 	cmplti	r2,r2,10
 800154c:	103fb41e 	bne	r2,zero,8001420 <__alt_data_end+0xf8001420>
		for (j = 0; j < FC1_OUT_DIM; j++)
			tmp_ans += FC1_Image[j] * Fc2_W[j][i];
		tmp_ans += Fc2_B[i];
		FC2_Image[i] = tmp_ans;
	}
}
 8001550:	e037883a 	mov	sp,fp
 8001554:	dfc00117 	ldw	ra,4(sp)
 8001558:	df000017 	ldw	fp,0(sp)
 800155c:	dec00204 	addi	sp,sp,8
 8001560:	f800283a 	ret

08001564 <Get_Answer>:

void Get_Answer() {
 8001564:	defff704 	addi	sp,sp,-36
 8001568:	dfc00815 	stw	ra,32(sp)
 800156c:	df000715 	stw	fp,28(sp)
 8001570:	dc000615 	stw	r16,24(sp)
 8001574:	df000704 	addi	fp,sp,28
	double max = FC2_Image[0];
 8001578:	00820134 	movhi	r2,2052
 800157c:	10a2ac04 	addi	r2,r2,-30032
 8001580:	10c00017 	ldw	r3,0(r2)
 8001584:	e0fff915 	stw	r3,-28(fp)
 8001588:	10800117 	ldw	r2,4(r2)
 800158c:	e0bffa15 	stw	r2,-24(fp)
	int max_point = 0;
 8001590:	e03ffb15 	stw	zero,-20(fp)
	int i;
	for (i = 1; i < FC2_OUT_DIM; i++)
 8001594:	00800044 	movi	r2,1
 8001598:	e0bffc15 	stw	r2,-16(fp)
 800159c:	00001b06 	br	800160c <Get_Answer+0xa8>
		if (FC2_Image[i] > max) {
 80015a0:	00820134 	movhi	r2,2052
 80015a4:	10a2ac04 	addi	r2,r2,-30032
 80015a8:	e0fffc17 	ldw	r3,-16(fp)
 80015ac:	180690fa 	slli	r3,r3,3
 80015b0:	10c9883a 	add	r4,r2,r3
 80015b4:	20800017 	ldw	r2,0(r4)
 80015b8:	20c00117 	ldw	r3,4(r4)
 80015bc:	1009883a 	mov	r4,r2
 80015c0:	180b883a 	mov	r5,r3
 80015c4:	e1bff917 	ldw	r6,-28(fp)
 80015c8:	e1fffa17 	ldw	r7,-24(fp)
 80015cc:	8003e200 	call	8003e20 <__gedf2>
 80015d0:	00800b0e 	bge	zero,r2,8001600 <Get_Answer+0x9c>
			max = FC2_Image[i];
 80015d4:	00820134 	movhi	r2,2052
 80015d8:	10a2ac04 	addi	r2,r2,-30032
 80015dc:	e0fffc17 	ldw	r3,-16(fp)
 80015e0:	180690fa 	slli	r3,r3,3
 80015e4:	10c5883a 	add	r2,r2,r3
 80015e8:	10c00017 	ldw	r3,0(r2)
 80015ec:	e0fff915 	stw	r3,-28(fp)
 80015f0:	10800117 	ldw	r2,4(r2)
 80015f4:	e0bffa15 	stw	r2,-24(fp)
			max_point = i;
 80015f8:	e0bffc17 	ldw	r2,-16(fp)
 80015fc:	e0bffb15 	stw	r2,-20(fp)

void Get_Answer() {
	double max = FC2_Image[0];
	int max_point = 0;
	int i;
	for (i = 1; i < FC2_OUT_DIM; i++)
 8001600:	e0bffc17 	ldw	r2,-16(fp)
 8001604:	10800044 	addi	r2,r2,1
 8001608:	e0bffc15 	stw	r2,-16(fp)
 800160c:	e0bffc17 	ldw	r2,-16(fp)
 8001610:	10800290 	cmplti	r2,r2,10
 8001614:	103fe21e 	bne	r2,zero,80015a0 <__alt_data_end+0xf80015a0>
		if (FC2_Image[i] > max) {
			max = FC2_Image[i];
			max_point = i;
		}
	double sum = 0.0;
 8001618:	e03ffd15 	stw	zero,-12(fp)
 800161c:	e03ffe15 	stw	zero,-8(fp)
	for(i = 0; i < FC2_OUT_DIM; i++) {
 8001620:	e03ffc15 	stw	zero,-16(fp)
 8001624:	00002606 	br	80016c0 <Get_Answer+0x15c>
		Softmax[i] = exp(FC2_Image[i]);
 8001628:	00820134 	movhi	r2,2052
 800162c:	10a2ac04 	addi	r2,r2,-30032
 8001630:	e0fffc17 	ldw	r3,-16(fp)
 8001634:	180690fa 	slli	r3,r3,3
 8001638:	10c9883a 	add	r4,r2,r3
 800163c:	20800017 	ldw	r2,0(r4)
 8001640:	20c00117 	ldw	r3,4(r4)
 8001644:	1009883a 	mov	r4,r2
 8001648:	180b883a 	mov	r5,r3
 800164c:	80024f00 	call	80024f0 <exp>
 8001650:	1009883a 	mov	r4,r2
 8001654:	180b883a 	mov	r5,r3
 8001658:	008200b4 	movhi	r2,2050
 800165c:	10988804 	addi	r2,r2,25120
 8001660:	e0fffc17 	ldw	r3,-16(fp)
 8001664:	180690fa 	slli	r3,r3,3
 8001668:	10c5883a 	add	r2,r2,r3
 800166c:	11000015 	stw	r4,0(r2)
 8001670:	11400115 	stw	r5,4(r2)
		sum += Softmax[i];
 8001674:	008200b4 	movhi	r2,2050
 8001678:	10988804 	addi	r2,r2,25120
 800167c:	e0fffc17 	ldw	r3,-16(fp)
 8001680:	180690fa 	slli	r3,r3,3
 8001684:	10c9883a 	add	r4,r2,r3
 8001688:	20800017 	ldw	r2,0(r4)
 800168c:	20c00117 	ldw	r3,4(r4)
 8001690:	e13ffd17 	ldw	r4,-12(fp)
 8001694:	e17ffe17 	ldw	r5,-8(fp)
 8001698:	100d883a 	mov	r6,r2
 800169c:	180f883a 	mov	r7,r3
 80016a0:	8002cb80 	call	8002cb8 <__adddf3>
 80016a4:	1009883a 	mov	r4,r2
 80016a8:	180b883a 	mov	r5,r3
 80016ac:	e13ffd15 	stw	r4,-12(fp)
 80016b0:	e17ffe15 	stw	r5,-8(fp)
		if (FC2_Image[i] > max) {
			max = FC2_Image[i];
			max_point = i;
		}
	double sum = 0.0;
	for(i = 0; i < FC2_OUT_DIM; i++) {
 80016b4:	e0bffc17 	ldw	r2,-16(fp)
 80016b8:	10800044 	addi	r2,r2,1
 80016bc:	e0bffc15 	stw	r2,-16(fp)
 80016c0:	e0bffc17 	ldw	r2,-16(fp)
 80016c4:	10800290 	cmplti	r2,r2,10
 80016c8:	103fd71e 	bne	r2,zero,8001628 <__alt_data_end+0xf8001628>
		Softmax[i] = exp(FC2_Image[i]);
		sum += Softmax[i];
	}
	for(i = 0; i < FC2_OUT_DIM; i++) {
 80016cc:	e03ffc15 	stw	zero,-16(fp)
 80016d0:	00001a06 	br	800173c <Get_Answer+0x1d8>
		Softmax[i] /= sum;
 80016d4:	008200b4 	movhi	r2,2050
 80016d8:	10988804 	addi	r2,r2,25120
 80016dc:	e0fffc17 	ldw	r3,-16(fp)
 80016e0:	180690fa 	slli	r3,r3,3
 80016e4:	10c9883a 	add	r4,r2,r3
 80016e8:	20800017 	ldw	r2,0(r4)
 80016ec:	20c00117 	ldw	r3,4(r4)
 80016f0:	1009883a 	mov	r4,r2
 80016f4:	180b883a 	mov	r5,r3
 80016f8:	e1bffd17 	ldw	r6,-12(fp)
 80016fc:	e1fffe17 	ldw	r7,-8(fp)
 8001700:	80035540 	call	8003554 <__divdf3>
 8001704:	1009883a 	mov	r4,r2
 8001708:	180b883a 	mov	r5,r3
 800170c:	2005883a 	mov	r2,r4
 8001710:	2807883a 	mov	r3,r5
 8001714:	010200b4 	movhi	r4,2050
 8001718:	21188804 	addi	r4,r4,25120
 800171c:	e17ffc17 	ldw	r5,-16(fp)
 8001720:	280a90fa 	slli	r5,r5,3
 8001724:	2149883a 	add	r4,r4,r5
 8001728:	20800015 	stw	r2,0(r4)
 800172c:	20c00115 	stw	r3,4(r4)
	double sum = 0.0;
	for(i = 0; i < FC2_OUT_DIM; i++) {
		Softmax[i] = exp(FC2_Image[i]);
		sum += Softmax[i];
	}
	for(i = 0; i < FC2_OUT_DIM; i++) {
 8001730:	e0bffc17 	ldw	r2,-16(fp)
 8001734:	10800044 	addi	r2,r2,1
 8001738:	e0bffc15 	stw	r2,-16(fp)
 800173c:	e0bffc17 	ldw	r2,-16(fp)
 8001740:	10800290 	cmplti	r2,r2,10
 8001744:	103fe31e 	bne	r2,zero,80016d4 <__alt_data_end+0xf80016d4>
		Softmax[i] /= sum;
	}
	ans = max_point;
 8001748:	e0bffb17 	ldw	r2,-20(fp)
 800174c:	d09f5115 	stw	r2,32068(gp)

	max = -1;
 8001750:	e03ff915 	stw	zero,-28(fp)
 8001754:	00affc34 	movhi	r2,49136
 8001758:	e0bffa15 	stw	r2,-24(fp)
	max_point = -1;
 800175c:	00bfffc4 	movi	r2,-1
 8001760:	e0bffb15 	stw	r2,-20(fp)
	for(i = 0; i < FC2_OUT_DIM; i++)
 8001764:	e03ffc15 	stw	zero,-16(fp)
 8001768:	00001e06 	br	80017e4 <Get_Answer+0x280>
		if(Softmax[i] > max && i != ans) {
 800176c:	008200b4 	movhi	r2,2050
 8001770:	10988804 	addi	r2,r2,25120
 8001774:	e0fffc17 	ldw	r3,-16(fp)
 8001778:	180690fa 	slli	r3,r3,3
 800177c:	10c9883a 	add	r4,r2,r3
 8001780:	20800017 	ldw	r2,0(r4)
 8001784:	20c00117 	ldw	r3,4(r4)
 8001788:	1009883a 	mov	r4,r2
 800178c:	180b883a 	mov	r5,r3
 8001790:	e1bff917 	ldw	r6,-28(fp)
 8001794:	e1fffa17 	ldw	r7,-24(fp)
 8001798:	8003e200 	call	8003e20 <__gedf2>
 800179c:	00800e0e 	bge	zero,r2,80017d8 <Get_Answer+0x274>
 80017a0:	d09f5117 	ldw	r2,32068(gp)
 80017a4:	e0fffc17 	ldw	r3,-16(fp)
 80017a8:	18800b26 	beq	r3,r2,80017d8 <Get_Answer+0x274>
			max_point = i;
 80017ac:	e0bffc17 	ldw	r2,-16(fp)
 80017b0:	e0bffb15 	stw	r2,-20(fp)
			max = Softmax[i];
 80017b4:	008200b4 	movhi	r2,2050
 80017b8:	10988804 	addi	r2,r2,25120
 80017bc:	e0fffc17 	ldw	r3,-16(fp)
 80017c0:	180690fa 	slli	r3,r3,3
 80017c4:	10c5883a 	add	r2,r2,r3
 80017c8:	10c00017 	ldw	r3,0(r2)
 80017cc:	e0fff915 	stw	r3,-28(fp)
 80017d0:	10800117 	ldw	r2,4(r2)
 80017d4:	e0bffa15 	stw	r2,-24(fp)
	}
	ans = max_point;

	max = -1;
	max_point = -1;
	for(i = 0; i < FC2_OUT_DIM; i++)
 80017d8:	e0bffc17 	ldw	r2,-16(fp)
 80017dc:	10800044 	addi	r2,r2,1
 80017e0:	e0bffc15 	stw	r2,-16(fp)
 80017e4:	e0bffc17 	ldw	r2,-16(fp)
 80017e8:	10800290 	cmplti	r2,r2,10
 80017ec:	103fdf1e 	bne	r2,zero,800176c <__alt_data_end+0xf800176c>
		if(Softmax[i] > max && i != ans) {
			max_point = i;
			max = Softmax[i];
		}
	subop = max_point;
 80017f0:	e0bffb17 	ldw	r2,-20(fp)
 80017f4:	d09f4f15 	stw	r2,32060(gp)

	for(i = 0; i < FC2_OUT_DIM; i++)
 80017f8:	e03ffc15 	stw	zero,-16(fp)
 80017fc:	00003406 	br	80018d0 <Get_Answer+0x36c>
		printf("Softmax[%d] = %d.%d\n", i, (int)(Softmax[i] * 100.0), ((int)(Softmax[i] * 1000.0) % 10));
 8001800:	008200b4 	movhi	r2,2050
 8001804:	10988804 	addi	r2,r2,25120
 8001808:	e0fffc17 	ldw	r3,-16(fp)
 800180c:	180690fa 	slli	r3,r3,3
 8001810:	10c9883a 	add	r4,r2,r3
 8001814:	20800017 	ldw	r2,0(r4)
 8001818:	20c00117 	ldw	r3,4(r4)
 800181c:	1009883a 	mov	r4,r2
 8001820:	180b883a 	mov	r5,r3
 8001824:	000d883a 	mov	r6,zero
 8001828:	01d01674 	movhi	r7,16473
 800182c:	8003fe00 	call	8003fe0 <__muldf3>
 8001830:	1009883a 	mov	r4,r2
 8001834:	180b883a 	mov	r5,r3
 8001838:	2005883a 	mov	r2,r4
 800183c:	2807883a 	mov	r3,r5
 8001840:	1009883a 	mov	r4,r2
 8001844:	180b883a 	mov	r5,r3
 8001848:	8004fd40 	call	8004fd4 <__fixdfsi>
 800184c:	1021883a 	mov	r16,r2
 8001850:	008200b4 	movhi	r2,2050
 8001854:	10988804 	addi	r2,r2,25120
 8001858:	e0fffc17 	ldw	r3,-16(fp)
 800185c:	180690fa 	slli	r3,r3,3
 8001860:	10c9883a 	add	r4,r2,r3
 8001864:	20800017 	ldw	r2,0(r4)
 8001868:	20c00117 	ldw	r3,4(r4)
 800186c:	1009883a 	mov	r4,r2
 8001870:	180b883a 	mov	r5,r3
 8001874:	000d883a 	mov	r6,zero
 8001878:	01d023f4 	movhi	r7,16527
 800187c:	39d00004 	addi	r7,r7,16384
 8001880:	8003fe00 	call	8003fe0 <__muldf3>
 8001884:	1009883a 	mov	r4,r2
 8001888:	180b883a 	mov	r5,r3
 800188c:	2005883a 	mov	r2,r4
 8001890:	2807883a 	mov	r3,r5
 8001894:	1009883a 	mov	r4,r2
 8001898:	180b883a 	mov	r5,r3
 800189c:	8004fd40 	call	8004fd4 <__fixdfsi>
 80018a0:	1009883a 	mov	r4,r2
 80018a4:	01400284 	movi	r5,10
 80018a8:	8002c4c0 	call	8002c4c <__modsi3>
 80018ac:	01020034 	movhi	r4,2048
 80018b0:	21198304 	addi	r4,r4,26124
 80018b4:	e17ffc17 	ldw	r5,-16(fp)
 80018b8:	800d883a 	mov	r6,r16
 80018bc:	100f883a 	mov	r7,r2
 80018c0:	80051dc0 	call	80051dc <printf>
			max_point = i;
			max = Softmax[i];
		}
	subop = max_point;

	for(i = 0; i < FC2_OUT_DIM; i++)
 80018c4:	e0bffc17 	ldw	r2,-16(fp)
 80018c8:	10800044 	addi	r2,r2,1
 80018cc:	e0bffc15 	stw	r2,-16(fp)
 80018d0:	e0bffc17 	ldw	r2,-16(fp)
 80018d4:	10800290 	cmplti	r2,r2,10
 80018d8:	103fc91e 	bne	r2,zero,8001800 <__alt_data_end+0xf8001800>
		printf("Softmax[%d] = %d.%d\n", i, (int)(Softmax[i] * 100.0), ((int)(Softmax[i] * 1000.0) % 10));
}
 80018dc:	e6ffff04 	addi	sp,fp,-4
 80018e0:	dfc00217 	ldw	ra,8(sp)
 80018e4:	df000117 	ldw	fp,4(sp)
 80018e8:	dc000017 	ldw	r16,0(sp)
 80018ec:	dec00304 	addi	sp,sp,12
 80018f0:	f800283a 	ret

080018f4 <Reset_Screen>:
unsigned char Screen_Buffer[800][480];
unsigned char Large_Digit[480][480];
double sum_value[28][28], sum_n[28][28];
unsigned char recognize_flag;

void Reset_Screen() {
 80018f4:	defffc04 	addi	sp,sp,-16
 80018f8:	dfc00315 	stw	ra,12(sp)
 80018fc:	df000215 	stw	fp,8(sp)
 8001900:	df000204 	addi	fp,sp,8
	int i, j;
	for(i = 0; i < 800*480; i++)
 8001904:	e03ffe15 	stw	zero,-8(fp)
 8001908:	00000806 	br	800192c <Reset_Screen+0x38>
		*(pUser_LTM_Buf) = (i << 12) + 255;
 800190c:	d0a00317 	ldw	r2,-32756(gp)
 8001910:	e0fffe17 	ldw	r3,-8(fp)
 8001914:	1806933a 	slli	r3,r3,12
 8001918:	18c03fc4 	addi	r3,r3,255
 800191c:	10c00015 	stw	r3,0(r2)
double sum_value[28][28], sum_n[28][28];
unsigned char recognize_flag;

void Reset_Screen() {
	int i, j;
	for(i = 0; i < 800*480; i++)
 8001920:	e0bffe17 	ldw	r2,-8(fp)
 8001924:	10800044 	addi	r2,r2,1
 8001928:	e0bffe15 	stw	r2,-8(fp)
 800192c:	e0fffe17 	ldw	r3,-8(fp)
 8001930:	008001b4 	movhi	r2,6
 8001934:	10b6ffc4 	addi	r2,r2,-9217
 8001938:	10fff40e 	bge	r2,r3,800190c <__alt_data_end+0xf800190c>
		*(pUser_LTM_Buf) = (i << 12) + 255;
	for(j = 0; j < 480; j++) {
 800193c:	e03fff15 	stw	zero,-4(fp)
 8001940:	00000f06 	br	8001980 <Reset_Screen+0x8c>
		*(pUser_LTM_Buf) = ((j * 800 + 159) << 12) + 0;
 8001944:	d0a00317 	ldw	r2,-32756(gp)
 8001948:	e0ffff17 	ldw	r3,-4(fp)
 800194c:	18c0c824 	muli	r3,r3,800
 8001950:	18c027c4 	addi	r3,r3,159
 8001954:	1806933a 	slli	r3,r3,12
 8001958:	10c00015 	stw	r3,0(r2)
		*(pUser_LTM_Buf) = ((j * 800 + 640) << 12) + 0;
 800195c:	d0a00317 	ldw	r2,-32756(gp)
 8001960:	e0ffff17 	ldw	r3,-4(fp)
 8001964:	18c0c824 	muli	r3,r3,800
 8001968:	18c0a004 	addi	r3,r3,640
 800196c:	1806933a 	slli	r3,r3,12
 8001970:	10c00015 	stw	r3,0(r2)

void Reset_Screen() {
	int i, j;
	for(i = 0; i < 800*480; i++)
		*(pUser_LTM_Buf) = (i << 12) + 255;
	for(j = 0; j < 480; j++) {
 8001974:	e0bfff17 	ldw	r2,-4(fp)
 8001978:	10800044 	addi	r2,r2,1
 800197c:	e0bfff15 	stw	r2,-4(fp)
 8001980:	e0bfff17 	ldw	r2,-4(fp)
 8001984:	10807810 	cmplti	r2,r2,480
 8001988:	103fee1e 	bne	r2,zero,8001944 <__alt_data_end+0xf8001944>
		*(pUser_LTM_Buf) = ((j * 800 + 159) << 12) + 0;
		*(pUser_LTM_Buf) = ((j * 800 + 640) << 12) + 0;
	}
	*(pUser_SEG8) = 0xffffffff;
 800198c:	d0a00117 	ldw	r2,-32764(gp)
 8001990:	00ffffc4 	movi	r3,-1
 8001994:	10c00015 	stw	r3,0(r2)
	LCD_Disp(1, 0, "Please draw", 11);
 8001998:	01000044 	movi	r4,1
 800199c:	000b883a 	mov	r5,zero
 80019a0:	01820034 	movhi	r6,2048
 80019a4:	31998904 	addi	r6,r6,26148
 80019a8:	01c002c4 	movi	r7,11
 80019ac:	800005c0 	call	800005c <LCD_Disp>
	LCD_Disp(2, 0, "               ", 15);
 80019b0:	01000084 	movi	r4,2
 80019b4:	000b883a 	mov	r5,zero
 80019b8:	01820034 	movhi	r6,2048
 80019bc:	31998c04 	addi	r6,r6,26160
 80019c0:	01c003c4 	movi	r7,15
 80019c4:	800005c0 	call	800005c <LCD_Disp>
	for(i = 0; i < 800; i++)
 80019c8:	e03ffe15 	stw	zero,-8(fp)
 80019cc:	00001406 	br	8001a20 <Reset_Screen+0x12c>
		for(j = 0; j < 480; j++)
 80019d0:	e03fff15 	stw	zero,-4(fp)
 80019d4:	00000c06 	br	8001a08 <Reset_Screen+0x114>
			Screen_Buffer[i][j] = 255;
 80019d8:	00820234 	movhi	r2,2056
 80019dc:	10bee804 	addi	r2,r2,-1120
 80019e0:	e0fffe17 	ldw	r3,-8(fp)
 80019e4:	19007824 	muli	r4,r3,480
 80019e8:	e0ffff17 	ldw	r3,-4(fp)
 80019ec:	20c7883a 	add	r3,r4,r3
 80019f0:	10c5883a 	add	r2,r2,r3
 80019f4:	00ffffc4 	movi	r3,-1
 80019f8:	10c00005 	stb	r3,0(r2)
	}
	*(pUser_SEG8) = 0xffffffff;
	LCD_Disp(1, 0, "Please draw", 11);
	LCD_Disp(2, 0, "               ", 15);
	for(i = 0; i < 800; i++)
		for(j = 0; j < 480; j++)
 80019fc:	e0bfff17 	ldw	r2,-4(fp)
 8001a00:	10800044 	addi	r2,r2,1
 8001a04:	e0bfff15 	stw	r2,-4(fp)
 8001a08:	e0bfff17 	ldw	r2,-4(fp)
 8001a0c:	10807810 	cmplti	r2,r2,480
 8001a10:	103ff11e 	bne	r2,zero,80019d8 <__alt_data_end+0xf80019d8>
		*(pUser_LTM_Buf) = ((j * 800 + 640) << 12) + 0;
	}
	*(pUser_SEG8) = 0xffffffff;
	LCD_Disp(1, 0, "Please draw", 11);
	LCD_Disp(2, 0, "               ", 15);
	for(i = 0; i < 800; i++)
 8001a14:	e0bffe17 	ldw	r2,-8(fp)
 8001a18:	10800044 	addi	r2,r2,1
 8001a1c:	e0bffe15 	stw	r2,-8(fp)
 8001a20:	e0bffe17 	ldw	r2,-8(fp)
 8001a24:	1080c810 	cmplti	r2,r2,800
 8001a28:	103fe91e 	bne	r2,zero,80019d0 <__alt_data_end+0xf80019d0>
		for(j = 0; j < 480; j++)
			Screen_Buffer[i][j] = 255;
	recognize_flag = 0;
 8001a2c:	d01f5005 	stb	zero,32064(gp)
}
 8001a30:	e037883a 	mov	sp,fp
 8001a34:	dfc00117 	ldw	ra,4(sp)
 8001a38:	df000017 	ldw	fp,0(sp)
 8001a3c:	dec00204 	addi	sp,sp,8
 8001a40:	f800283a 	ret

08001a44 <Recognition>:

void Recognition() {
 8001a44:	defff604 	addi	sp,sp,-40
 8001a48:	dfc00915 	stw	ra,36(sp)
 8001a4c:	df000815 	stw	fp,32(sp)
 8001a50:	dc400715 	stw	r17,28(sp)
 8001a54:	dc000615 	stw	r16,24(sp)
 8001a58:	df000804 	addi	fp,sp,32
	if(recognize_flag == 1)
 8001a5c:	d09f5003 	ldbu	r2,32064(gp)
 8001a60:	10803fcc 	andi	r2,r2,255
 8001a64:	10800058 	cmpnei	r2,r2,1
 8001a68:	1000011e 	bne	r2,zero,8001a70 <Recognition+0x2c>
		return;
 8001a6c:	00020a06 	br	8002298 <Recognition+0x854>
	printf("Calculating ...\n");
 8001a70:	01020034 	movhi	r4,2048
 8001a74:	21199004 	addi	r4,r4,26176
 8001a78:	80052a80 	call	80052a8 <puts>
	LCD_Disp(1, 0, "Calculating...", 14);
 8001a7c:	01000044 	movi	r4,1
 8001a80:	000b883a 	mov	r5,zero
 8001a84:	01820034 	movhi	r6,2048
 8001a88:	31999404 	addi	r6,r6,26192
 8001a8c:	01c00384 	movi	r7,14
 8001a90:	800005c0 	call	800005c <LCD_Disp>
	LCD_Disp(2, 0, "               ", 15);
 8001a94:	01000084 	movi	r4,2
 8001a98:	000b883a 	mov	r5,zero
 8001a9c:	01820034 	movhi	r6,2048
 8001aa0:	31998c04 	addi	r6,r6,26160
 8001aa4:	01c003c4 	movi	r7,15
 8001aa8:	800005c0 	call	800005c <LCD_Disp>
	int i, j, tmp_i, tmp_j, tmp_z;

	// Split the screen and get the written digit (480*480)
	for(i = 160; i < 640; i++)
 8001aac:	00802804 	movi	r2,160
 8001ab0:	e0bff815 	stw	r2,-32(fp)
 8001ab4:	00001e06 	br	8001b30 <Recognition+0xec>
		for(j = 0; j < 480; j++)
 8001ab8:	e03ff915 	stw	zero,-28(fp)
 8001abc:	00001606 	br	8001b18 <Recognition+0xd4>
			Large_Digit[480 - j][i - 160] = Screen_Buffer[i][j];
 8001ac0:	00c07804 	movi	r3,480
 8001ac4:	e0bff917 	ldw	r2,-28(fp)
 8001ac8:	188bc83a 	sub	r5,r3,r2
 8001acc:	e0bff817 	ldw	r2,-32(fp)
 8001ad0:	113fd804 	addi	r4,r2,-160
 8001ad4:	00820234 	movhi	r2,2056
 8001ad8:	10bee804 	addi	r2,r2,-1120
 8001adc:	e0fff817 	ldw	r3,-32(fp)
 8001ae0:	19807824 	muli	r6,r3,480
 8001ae4:	e0fff917 	ldw	r3,-28(fp)
 8001ae8:	30c7883a 	add	r3,r6,r3
 8001aec:	10c5883a 	add	r2,r2,r3
 8001af0:	10c00003 	ldbu	r3,0(r2)
 8001af4:	00820134 	movhi	r2,2052
 8001af8:	10aca804 	addi	r2,r2,-19808
 8001afc:	29407824 	muli	r5,r5,480
 8001b00:	2909883a 	add	r4,r5,r4
 8001b04:	1105883a 	add	r2,r2,r4
 8001b08:	10c00005 	stb	r3,0(r2)
	LCD_Disp(2, 0, "               ", 15);
	int i, j, tmp_i, tmp_j, tmp_z;

	// Split the screen and get the written digit (480*480)
	for(i = 160; i < 640; i++)
		for(j = 0; j < 480; j++)
 8001b0c:	e0bff917 	ldw	r2,-28(fp)
 8001b10:	10800044 	addi	r2,r2,1
 8001b14:	e0bff915 	stw	r2,-28(fp)
 8001b18:	e0bff917 	ldw	r2,-28(fp)
 8001b1c:	10807810 	cmplti	r2,r2,480
 8001b20:	103fe71e 	bne	r2,zero,8001ac0 <__alt_data_end+0xf8001ac0>
	LCD_Disp(1, 0, "Calculating...", 14);
	LCD_Disp(2, 0, "               ", 15);
	int i, j, tmp_i, tmp_j, tmp_z;

	// Split the screen and get the written digit (480*480)
	for(i = 160; i < 640; i++)
 8001b24:	e0bff817 	ldw	r2,-32(fp)
 8001b28:	10800044 	addi	r2,r2,1
 8001b2c:	e0bff815 	stw	r2,-32(fp)
 8001b30:	e0bff817 	ldw	r2,-32(fp)
 8001b34:	1080a010 	cmplti	r2,r2,640
 8001b38:	103fdf1e 	bne	r2,zero,8001ab8 <__alt_data_end+0xf8001ab8>
		for(j = 0; j < 480; j++)
			Large_Digit[480 - j][i - 160] = Screen_Buffer[i][j];
	for(i = 0; i < 28; i++)
 8001b3c:	e03ff815 	stw	zero,-32(fp)
 8001b40:	00001f06 	br	8001bc0 <Recognition+0x17c>
		for(j = 0; j < 28; j++) {
 8001b44:	e03ff915 	stw	zero,-28(fp)
 8001b48:	00001706 	br	8001ba8 <Recognition+0x164>
			sum_value[i][j] = 0.0;
 8001b4c:	008200f4 	movhi	r2,2051
 8001b50:	1095dc04 	addi	r2,r2,22384
 8001b54:	e0fff817 	ldw	r3,-32(fp)
 8001b58:	19000724 	muli	r4,r3,28
 8001b5c:	e0fff917 	ldw	r3,-28(fp)
 8001b60:	20c7883a 	add	r3,r4,r3
 8001b64:	180690fa 	slli	r3,r3,3
 8001b68:	10c5883a 	add	r2,r2,r3
 8001b6c:	10000015 	stw	zero,0(r2)
 8001b70:	10000115 	stw	zero,4(r2)
			sum_n[i][j] = 0;
 8001b74:	008200f4 	movhi	r2,2051
 8001b78:	109c8c04 	addi	r2,r2,29232
 8001b7c:	e0fff817 	ldw	r3,-32(fp)
 8001b80:	19000724 	muli	r4,r3,28
 8001b84:	e0fff917 	ldw	r3,-28(fp)
 8001b88:	20c7883a 	add	r3,r4,r3
 8001b8c:	180690fa 	slli	r3,r3,3
 8001b90:	10c5883a 	add	r2,r2,r3
 8001b94:	10000015 	stw	zero,0(r2)
 8001b98:	10000115 	stw	zero,4(r2)
	// Split the screen and get the written digit (480*480)
	for(i = 160; i < 640; i++)
		for(j = 0; j < 480; j++)
			Large_Digit[480 - j][i - 160] = Screen_Buffer[i][j];
	for(i = 0; i < 28; i++)
		for(j = 0; j < 28; j++) {
 8001b9c:	e0bff917 	ldw	r2,-28(fp)
 8001ba0:	10800044 	addi	r2,r2,1
 8001ba4:	e0bff915 	stw	r2,-28(fp)
 8001ba8:	e0bff917 	ldw	r2,-28(fp)
 8001bac:	10800710 	cmplti	r2,r2,28
 8001bb0:	103fe61e 	bne	r2,zero,8001b4c <__alt_data_end+0xf8001b4c>

	// Split the screen and get the written digit (480*480)
	for(i = 160; i < 640; i++)
		for(j = 0; j < 480; j++)
			Large_Digit[480 - j][i - 160] = Screen_Buffer[i][j];
	for(i = 0; i < 28; i++)
 8001bb4:	e0bff817 	ldw	r2,-32(fp)
 8001bb8:	10800044 	addi	r2,r2,1
 8001bbc:	e0bff815 	stw	r2,-32(fp)
 8001bc0:	e0bff817 	ldw	r2,-32(fp)
 8001bc4:	10800710 	cmplti	r2,r2,28
 8001bc8:	103fde1e 	bne	r2,zero,8001b44 <__alt_data_end+0xf8001b44>
		for(j = 0; j < 28; j++) {
			sum_value[i][j] = 0.0;
			sum_n[i][j] = 0;
		}
	// Resize the digit from 480*480 to 28*28 for the CNN
	for(i = 0; i < 480; i++) {
 8001bcc:	e03ff815 	stw	zero,-32(fp)
 8001bd0:	0000a106 	br	8001e58 <Recognition+0x414>
		for(j = 0; j < 480; j++) {
 8001bd4:	e03ff915 	stw	zero,-28(fp)
 8001bd8:	00007e06 	br	8001dd4 <Recognition+0x390>
			tmp_i = (int)((double)i * 28.0 / 480.0);
 8001bdc:	e13ff817 	ldw	r4,-32(fp)
 8001be0:	800505c0 	call	800505c <__floatsidf>
 8001be4:	100b883a 	mov	r5,r2
 8001be8:	180d883a 	mov	r6,r3
 8001bec:	2809883a 	mov	r4,r5
 8001bf0:	300b883a 	mov	r5,r6
 8001bf4:	000d883a 	mov	r6,zero
 8001bf8:	01d00f34 	movhi	r7,16444
 8001bfc:	8003fe00 	call	8003fe0 <__muldf3>
 8001c00:	1009883a 	mov	r4,r2
 8001c04:	180b883a 	mov	r5,r3
 8001c08:	2005883a 	mov	r2,r4
 8001c0c:	2807883a 	mov	r3,r5
 8001c10:	1009883a 	mov	r4,r2
 8001c14:	180b883a 	mov	r5,r3
 8001c18:	000d883a 	mov	r6,zero
 8001c1c:	01d01fb4 	movhi	r7,16510
 8001c20:	80035540 	call	8003554 <__divdf3>
 8001c24:	1009883a 	mov	r4,r2
 8001c28:	180b883a 	mov	r5,r3
 8001c2c:	2005883a 	mov	r2,r4
 8001c30:	2807883a 	mov	r3,r5
 8001c34:	1009883a 	mov	r4,r2
 8001c38:	180b883a 	mov	r5,r3
 8001c3c:	8004fd40 	call	8004fd4 <__fixdfsi>
 8001c40:	e0bffa15 	stw	r2,-24(fp)
			tmp_j = (int)((double)j * 28.0 / 480.0);
 8001c44:	e13ff917 	ldw	r4,-28(fp)
 8001c48:	800505c0 	call	800505c <__floatsidf>
 8001c4c:	100b883a 	mov	r5,r2
 8001c50:	180d883a 	mov	r6,r3
 8001c54:	2809883a 	mov	r4,r5
 8001c58:	300b883a 	mov	r5,r6
 8001c5c:	000d883a 	mov	r6,zero
 8001c60:	01d00f34 	movhi	r7,16444
 8001c64:	8003fe00 	call	8003fe0 <__muldf3>
 8001c68:	1009883a 	mov	r4,r2
 8001c6c:	180b883a 	mov	r5,r3
 8001c70:	2005883a 	mov	r2,r4
 8001c74:	2807883a 	mov	r3,r5
 8001c78:	1009883a 	mov	r4,r2
 8001c7c:	180b883a 	mov	r5,r3
 8001c80:	000d883a 	mov	r6,zero
 8001c84:	01d01fb4 	movhi	r7,16510
 8001c88:	80035540 	call	8003554 <__divdf3>
 8001c8c:	1009883a 	mov	r4,r2
 8001c90:	180b883a 	mov	r5,r3
 8001c94:	2005883a 	mov	r2,r4
 8001c98:	2807883a 	mov	r3,r5
 8001c9c:	1009883a 	mov	r4,r2
 8001ca0:	180b883a 	mov	r5,r3
 8001ca4:	8004fd40 	call	8004fd4 <__fixdfsi>
 8001ca8:	e0bffb15 	stw	r2,-20(fp)
			sum_value[tmp_i][tmp_j] += Large_Digit[i][j];
 8001cac:	008200f4 	movhi	r2,2051
 8001cb0:	1095dc04 	addi	r2,r2,22384
 8001cb4:	e0fffa17 	ldw	r3,-24(fp)
 8001cb8:	19000724 	muli	r4,r3,28
 8001cbc:	e0fffb17 	ldw	r3,-20(fp)
 8001cc0:	20c7883a 	add	r3,r4,r3
 8001cc4:	180690fa 	slli	r3,r3,3
 8001cc8:	10c5883a 	add	r2,r2,r3
 8001ccc:	14000017 	ldw	r16,0(r2)
 8001cd0:	14400117 	ldw	r17,4(r2)
 8001cd4:	00820134 	movhi	r2,2052
 8001cd8:	10aca804 	addi	r2,r2,-19808
 8001cdc:	e0fff817 	ldw	r3,-32(fp)
 8001ce0:	19007824 	muli	r4,r3,480
 8001ce4:	e0fff917 	ldw	r3,-28(fp)
 8001ce8:	20c7883a 	add	r3,r4,r3
 8001cec:	10c5883a 	add	r2,r2,r3
 8001cf0:	10800003 	ldbu	r2,0(r2)
 8001cf4:	10803fcc 	andi	r2,r2,255
 8001cf8:	1009883a 	mov	r4,r2
 8001cfc:	800505c0 	call	800505c <__floatsidf>
 8001d00:	100f883a 	mov	r7,r2
 8001d04:	1811883a 	mov	r8,r3
 8001d08:	8009883a 	mov	r4,r16
 8001d0c:	880b883a 	mov	r5,r17
 8001d10:	380d883a 	mov	r6,r7
 8001d14:	400f883a 	mov	r7,r8
 8001d18:	8002cb80 	call	8002cb8 <__adddf3>
 8001d1c:	1009883a 	mov	r4,r2
 8001d20:	180b883a 	mov	r5,r3
 8001d24:	2005883a 	mov	r2,r4
 8001d28:	2807883a 	mov	r3,r5
 8001d2c:	010200f4 	movhi	r4,2051
 8001d30:	2115dc04 	addi	r4,r4,22384
 8001d34:	e17ffa17 	ldw	r5,-24(fp)
 8001d38:	29800724 	muli	r6,r5,28
 8001d3c:	e17ffb17 	ldw	r5,-20(fp)
 8001d40:	314b883a 	add	r5,r6,r5
 8001d44:	280a90fa 	slli	r5,r5,3
 8001d48:	2149883a 	add	r4,r4,r5
 8001d4c:	20800015 	stw	r2,0(r4)
 8001d50:	20c00115 	stw	r3,4(r4)
			sum_n[tmp_i][tmp_j] += 1;
 8001d54:	008200f4 	movhi	r2,2051
 8001d58:	109c8c04 	addi	r2,r2,29232
 8001d5c:	e0fffa17 	ldw	r3,-24(fp)
 8001d60:	19000724 	muli	r4,r3,28
 8001d64:	e0fffb17 	ldw	r3,-20(fp)
 8001d68:	20c7883a 	add	r3,r4,r3
 8001d6c:	180690fa 	slli	r3,r3,3
 8001d70:	10c9883a 	add	r4,r2,r3
 8001d74:	20800017 	ldw	r2,0(r4)
 8001d78:	20c00117 	ldw	r3,4(r4)
 8001d7c:	1009883a 	mov	r4,r2
 8001d80:	180b883a 	mov	r5,r3
 8001d84:	000d883a 	mov	r6,zero
 8001d88:	01cffc34 	movhi	r7,16368
 8001d8c:	8002cb80 	call	8002cb8 <__adddf3>
 8001d90:	1009883a 	mov	r4,r2
 8001d94:	180b883a 	mov	r5,r3
 8001d98:	2005883a 	mov	r2,r4
 8001d9c:	2807883a 	mov	r3,r5
 8001da0:	010200f4 	movhi	r4,2051
 8001da4:	211c8c04 	addi	r4,r4,29232
 8001da8:	e17ffa17 	ldw	r5,-24(fp)
 8001dac:	29800724 	muli	r6,r5,28
 8001db0:	e17ffb17 	ldw	r5,-20(fp)
 8001db4:	314b883a 	add	r5,r6,r5
 8001db8:	280a90fa 	slli	r5,r5,3
 8001dbc:	2149883a 	add	r4,r4,r5
 8001dc0:	20800015 	stw	r2,0(r4)
 8001dc4:	20c00115 	stw	r3,4(r4)
			sum_value[i][j] = 0.0;
			sum_n[i][j] = 0;
		}
	// Resize the digit from 480*480 to 28*28 for the CNN
	for(i = 0; i < 480; i++) {
		for(j = 0; j < 480; j++) {
 8001dc8:	e0bff917 	ldw	r2,-28(fp)
 8001dcc:	10800044 	addi	r2,r2,1
 8001dd0:	e0bff915 	stw	r2,-28(fp)
 8001dd4:	e0bff917 	ldw	r2,-28(fp)
 8001dd8:	10807810 	cmplti	r2,r2,480
 8001ddc:	103f7f1e 	bne	r2,zero,8001bdc <__alt_data_end+0xf8001bdc>
			tmp_j = (int)((double)j * 28.0 / 480.0);
			sum_value[tmp_i][tmp_j] += Large_Digit[i][j];
			sum_n[tmp_i][tmp_j] += 1;
		}
		// Update progress displayed on SEG8 every 5 steps (about 1%)
		if(i % 5 == 0) {
 8001de0:	e0bff817 	ldw	r2,-32(fp)
 8001de4:	1009883a 	mov	r4,r2
 8001de8:	01400144 	movi	r5,5
 8001dec:	8002c4c0 	call	8002c4c <__modsi3>
 8001df0:	1000161e 	bne	r2,zero,8001e4c <Recognition+0x408>
			tmp_z = (i / 5);
 8001df4:	e0bff817 	ldw	r2,-32(fp)
 8001df8:	1009883a 	mov	r4,r2
 8001dfc:	01400144 	movi	r5,5
 8001e00:	8002bf80 	call	8002bf8 <__divsi3>
 8001e04:	e0bffc15 	stw	r2,-16(fp)
			*(pUser_SEG8) = 0xff00ffff + ((tmp_z / 10) << 20) + ((tmp_z % 10) << 16);
 8001e08:	d4200117 	ldw	r16,-32764(gp)
 8001e0c:	e0bffc17 	ldw	r2,-16(fp)
 8001e10:	1009883a 	mov	r4,r2
 8001e14:	01400284 	movi	r5,10
 8001e18:	8002bf80 	call	8002bf8 <__divsi3>
 8001e1c:	1004953a 	slli	r2,r2,20
 8001e20:	1023883a 	mov	r17,r2
 8001e24:	e0bffc17 	ldw	r2,-16(fp)
 8001e28:	1009883a 	mov	r4,r2
 8001e2c:	01400284 	movi	r5,10
 8001e30:	8002c4c0 	call	8002c4c <__modsi3>
 8001e34:	1004943a 	slli	r2,r2,16
 8001e38:	8887883a 	add	r3,r17,r2
 8001e3c:	00bfc074 	movhi	r2,65281
 8001e40:	10bfffc4 	addi	r2,r2,-1
 8001e44:	1885883a 	add	r2,r3,r2
 8001e48:	80800015 	stw	r2,0(r16)
		for(j = 0; j < 28; j++) {
			sum_value[i][j] = 0.0;
			sum_n[i][j] = 0;
		}
	// Resize the digit from 480*480 to 28*28 for the CNN
	for(i = 0; i < 480; i++) {
 8001e4c:	e0bff817 	ldw	r2,-32(fp)
 8001e50:	10800044 	addi	r2,r2,1
 8001e54:	e0bff815 	stw	r2,-32(fp)
 8001e58:	e0bff817 	ldw	r2,-32(fp)
 8001e5c:	10807810 	cmplti	r2,r2,480
 8001e60:	103f5c1e 	bne	r2,zero,8001bd4 <__alt_data_end+0xf8001bd4>
		if(i % 5 == 0) {
			tmp_z = (i / 5);
			*(pUser_SEG8) = 0xff00ffff + ((tmp_z / 10) << 20) + ((tmp_z % 10) << 16);
		}
	}
	for(i = 0; i < 28; i++)
 8001e64:	e03ff815 	stw	zero,-32(fp)
 8001e68:	00004506 	br	8001f80 <Recognition+0x53c>
		for(j = 0; j < 28; j++)
 8001e6c:	e03ff915 	stw	zero,-28(fp)
 8001e70:	00003d06 	br	8001f68 <Recognition+0x524>
			Input_Image[i][j] = 1.0 - sum_value[i][j] / (double)sum_n[i][j] / 255.0;
 8001e74:	008200f4 	movhi	r2,2051
 8001e78:	1095dc04 	addi	r2,r2,22384
 8001e7c:	e0fff817 	ldw	r3,-32(fp)
 8001e80:	19000724 	muli	r4,r3,28
 8001e84:	e0fff917 	ldw	r3,-28(fp)
 8001e88:	20c7883a 	add	r3,r4,r3
 8001e8c:	180690fa 	slli	r3,r3,3
 8001e90:	10c5883a 	add	r2,r2,r3
 8001e94:	11400017 	ldw	r5,0(r2)
 8001e98:	11800117 	ldw	r6,4(r2)
 8001e9c:	008200f4 	movhi	r2,2051
 8001ea0:	109c8c04 	addi	r2,r2,29232
 8001ea4:	e0fff817 	ldw	r3,-32(fp)
 8001ea8:	19000724 	muli	r4,r3,28
 8001eac:	e0fff917 	ldw	r3,-28(fp)
 8001eb0:	20c7883a 	add	r3,r4,r3
 8001eb4:	180690fa 	slli	r3,r3,3
 8001eb8:	10c9883a 	add	r4,r2,r3
 8001ebc:	20800017 	ldw	r2,0(r4)
 8001ec0:	20c00117 	ldw	r3,4(r4)
 8001ec4:	2809883a 	mov	r4,r5
 8001ec8:	300b883a 	mov	r5,r6
 8001ecc:	100d883a 	mov	r6,r2
 8001ed0:	180f883a 	mov	r7,r3
 8001ed4:	80035540 	call	8003554 <__divdf3>
 8001ed8:	1009883a 	mov	r4,r2
 8001edc:	180b883a 	mov	r5,r3
 8001ee0:	2005883a 	mov	r2,r4
 8001ee4:	2807883a 	mov	r3,r5
 8001ee8:	1009883a 	mov	r4,r2
 8001eec:	180b883a 	mov	r5,r3
 8001ef0:	000d883a 	mov	r6,zero
 8001ef4:	01d01c34 	movhi	r7,16496
 8001ef8:	39f80004 	addi	r7,r7,-8192
 8001efc:	80035540 	call	8003554 <__divdf3>
 8001f00:	1009883a 	mov	r4,r2
 8001f04:	180b883a 	mov	r5,r3
 8001f08:	2005883a 	mov	r2,r4
 8001f0c:	2807883a 	mov	r3,r5
 8001f10:	0009883a 	mov	r4,zero
 8001f14:	014ffc34 	movhi	r5,16368
 8001f18:	100d883a 	mov	r6,r2
 8001f1c:	180f883a 	mov	r7,r3
 8001f20:	80047040 	call	8004704 <__subdf3>
 8001f24:	1009883a 	mov	r4,r2
 8001f28:	180b883a 	mov	r5,r3
 8001f2c:	2005883a 	mov	r2,r4
 8001f30:	2807883a 	mov	r3,r5
 8001f34:	01020134 	movhi	r4,2052
 8001f38:	2122c004 	addi	r4,r4,-29952
 8001f3c:	e17ff817 	ldw	r5,-32(fp)
 8001f40:	29800724 	muli	r6,r5,28
 8001f44:	e17ff917 	ldw	r5,-28(fp)
 8001f48:	314b883a 	add	r5,r6,r5
 8001f4c:	280a90fa 	slli	r5,r5,3
 8001f50:	2149883a 	add	r4,r4,r5
 8001f54:	20800015 	stw	r2,0(r4)
 8001f58:	20c00115 	stw	r3,4(r4)
			tmp_z = (i / 5);
			*(pUser_SEG8) = 0xff00ffff + ((tmp_z / 10) << 20) + ((tmp_z % 10) << 16);
		}
	}
	for(i = 0; i < 28; i++)
		for(j = 0; j < 28; j++)
 8001f5c:	e0bff917 	ldw	r2,-28(fp)
 8001f60:	10800044 	addi	r2,r2,1
 8001f64:	e0bff915 	stw	r2,-28(fp)
 8001f68:	e0bff917 	ldw	r2,-28(fp)
 8001f6c:	10800710 	cmplti	r2,r2,28
 8001f70:	103fc01e 	bne	r2,zero,8001e74 <__alt_data_end+0xf8001e74>
		if(i % 5 == 0) {
			tmp_z = (i / 5);
			*(pUser_SEG8) = 0xff00ffff + ((tmp_z / 10) << 20) + ((tmp_z % 10) << 16);
		}
	}
	for(i = 0; i < 28; i++)
 8001f74:	e0bff817 	ldw	r2,-32(fp)
 8001f78:	10800044 	addi	r2,r2,1
 8001f7c:	e0bff815 	stw	r2,-32(fp)
 8001f80:	e0bff817 	ldw	r2,-32(fp)
 8001f84:	10800710 	cmplti	r2,r2,28
 8001f88:	103fb81e 	bne	r2,zero,8001e6c <__alt_data_end+0xf8001e6c>
		for(j = 0; j < 28; j++)
			Input_Image[i][j] = 1.0 - sum_value[i][j] / (double)sum_n[i][j] / 255.0;
	for(j = 0; j < 28; j++)
 8001f8c:	e03ff915 	stw	zero,-28(fp)
 8001f90:	00000a06 	br	8001fbc <Recognition+0x578>
		Input_Image[0][j] = 0.0;
 8001f94:	00820134 	movhi	r2,2052
 8001f98:	10a2c004 	addi	r2,r2,-29952
 8001f9c:	e0fff917 	ldw	r3,-28(fp)
 8001fa0:	180690fa 	slli	r3,r3,3
 8001fa4:	10c5883a 	add	r2,r2,r3
 8001fa8:	10000015 	stw	zero,0(r2)
 8001fac:	10000115 	stw	zero,4(r2)
		}
	}
	for(i = 0; i < 28; i++)
		for(j = 0; j < 28; j++)
			Input_Image[i][j] = 1.0 - sum_value[i][j] / (double)sum_n[i][j] / 255.0;
	for(j = 0; j < 28; j++)
 8001fb0:	e0bff917 	ldw	r2,-28(fp)
 8001fb4:	10800044 	addi	r2,r2,1
 8001fb8:	e0bff915 	stw	r2,-28(fp)
 8001fbc:	e0bff917 	ldw	r2,-28(fp)
 8001fc0:	10800710 	cmplti	r2,r2,28
 8001fc4:	103ff31e 	bne	r2,zero,8001f94 <__alt_data_end+0xf8001f94>
		Input_Image[0][j] = 0.0;

	// Start calculating
	CNN_MNIST_recognition(pUser_SEG8);
 8001fc8:	d0a00117 	ldw	r2,-32764(gp)
 8001fcc:	1009883a 	mov	r4,r2
 8001fd0:	80006680 	call	8000668 <CNN_MNIST_recognition>

	// Display answer on LCD and SEG8
	printf("Answer = %d\n", ans);
 8001fd4:	d09f5117 	ldw	r2,32068(gp)
 8001fd8:	01020034 	movhi	r4,2048
 8001fdc:	21199804 	addi	r4,r4,26208
 8001fe0:	100b883a 	mov	r5,r2
 8001fe4:	80051dc0 	call	80051dc <printf>
	*(pUser_SEG8) = 0xfffffff0 + ans;
 8001fe8:	d0a00117 	ldw	r2,-32764(gp)
 8001fec:	d0df5117 	ldw	r3,32068(gp)
 8001ff0:	18fffc04 	addi	r3,r3,-16
 8001ff4:	10c00015 	stw	r3,0(r2)
	str_ans[8] = 48 + ans;
 8001ff8:	d09f5117 	ldw	r2,32068(gp)
 8001ffc:	10800c04 	addi	r2,r2,48
 8002000:	1007883a 	mov	r3,r2
 8002004:	00820074 	movhi	r2,2049
 8002008:	10987e04 	addi	r2,r2,25080
 800200c:	10c00205 	stb	r3,8(r2)
	LCD_Disp(1, 0, str_ans, 9);
 8002010:	01000044 	movi	r4,1
 8002014:	000b883a 	mov	r5,zero
 8002018:	01820074 	movhi	r6,2049
 800201c:	31987e04 	addi	r6,r6,25080
 8002020:	01c00244 	movi	r7,9
 8002024:	800005c0 	call	800005c <LCD_Disp>

	// Display the reliability of the two most possible numbers using the result of softmax
	int tmp2;
	tmp2 = (int)(Softmax[ans] * 100.0);
 8002028:	d0df5117 	ldw	r3,32068(gp)
 800202c:	008200b4 	movhi	r2,2050
 8002030:	10988804 	addi	r2,r2,25120
 8002034:	180690fa 	slli	r3,r3,3
 8002038:	10c9883a 	add	r4,r2,r3
 800203c:	20800017 	ldw	r2,0(r4)
 8002040:	20c00117 	ldw	r3,4(r4)
 8002044:	1009883a 	mov	r4,r2
 8002048:	180b883a 	mov	r5,r3
 800204c:	000d883a 	mov	r6,zero
 8002050:	01d01674 	movhi	r7,16473
 8002054:	8003fe00 	call	8003fe0 <__muldf3>
 8002058:	1009883a 	mov	r4,r2
 800205c:	180b883a 	mov	r5,r3
 8002060:	2005883a 	mov	r2,r4
 8002064:	2807883a 	mov	r3,r5
 8002068:	1009883a 	mov	r4,r2
 800206c:	180b883a 	mov	r5,r3
 8002070:	8004fd40 	call	8004fd4 <__fixdfsi>
 8002074:	e0bffd15 	stw	r2,-12(fp)
	str_pro[0] = 48 + ans;
 8002078:	d09f5117 	ldw	r2,32068(gp)
 800207c:	10800c04 	addi	r2,r2,48
 8002080:	1007883a 	mov	r3,r2
 8002084:	00820074 	movhi	r2,2049
 8002088:	10988104 	addi	r2,r2,25092
 800208c:	10c00005 	stb	r3,0(r2)
	str_pro[2] = 48 + (tmp2 / 100);
 8002090:	e0bffd17 	ldw	r2,-12(fp)
 8002094:	1009883a 	mov	r4,r2
 8002098:	01401904 	movi	r5,100
 800209c:	8002bf80 	call	8002bf8 <__divsi3>
 80020a0:	10800c04 	addi	r2,r2,48
 80020a4:	1007883a 	mov	r3,r2
 80020a8:	00820074 	movhi	r2,2049
 80020ac:	10988104 	addi	r2,r2,25092
 80020b0:	10c00085 	stb	r3,2(r2)
	str_pro[3] = 48 + (tmp2 / 10 % 10);
 80020b4:	e0bffd17 	ldw	r2,-12(fp)
 80020b8:	1009883a 	mov	r4,r2
 80020bc:	01400284 	movi	r5,10
 80020c0:	8002bf80 	call	8002bf8 <__divsi3>
 80020c4:	1009883a 	mov	r4,r2
 80020c8:	01400284 	movi	r5,10
 80020cc:	8002c4c0 	call	8002c4c <__modsi3>
 80020d0:	10800c04 	addi	r2,r2,48
 80020d4:	1007883a 	mov	r3,r2
 80020d8:	00820074 	movhi	r2,2049
 80020dc:	10988104 	addi	r2,r2,25092
 80020e0:	10c000c5 	stb	r3,3(r2)
	str_pro[4] = 48 + (tmp2 % 10);
 80020e4:	e0bffd17 	ldw	r2,-12(fp)
 80020e8:	1009883a 	mov	r4,r2
 80020ec:	01400284 	movi	r5,10
 80020f0:	8002c4c0 	call	8002c4c <__modsi3>
 80020f4:	10800c04 	addi	r2,r2,48
 80020f8:	1007883a 	mov	r3,r2
 80020fc:	00820074 	movhi	r2,2049
 8002100:	10988104 	addi	r2,r2,25092
 8002104:	10c00105 	stb	r3,4(r2)

	tmp2 = (int)(Softmax[subop] * 100.0);
 8002108:	d0df4f17 	ldw	r3,32060(gp)
 800210c:	008200b4 	movhi	r2,2050
 8002110:	10988804 	addi	r2,r2,25120
 8002114:	180690fa 	slli	r3,r3,3
 8002118:	10c9883a 	add	r4,r2,r3
 800211c:	20800017 	ldw	r2,0(r4)
 8002120:	20c00117 	ldw	r3,4(r4)
 8002124:	1009883a 	mov	r4,r2
 8002128:	180b883a 	mov	r5,r3
 800212c:	000d883a 	mov	r6,zero
 8002130:	01d01674 	movhi	r7,16473
 8002134:	8003fe00 	call	8003fe0 <__muldf3>
 8002138:	1009883a 	mov	r4,r2
 800213c:	180b883a 	mov	r5,r3
 8002140:	2005883a 	mov	r2,r4
 8002144:	2807883a 	mov	r3,r5
 8002148:	1009883a 	mov	r4,r2
 800214c:	180b883a 	mov	r5,r3
 8002150:	8004fd40 	call	8004fd4 <__fixdfsi>
 8002154:	e0bffd15 	stw	r2,-12(fp)
	str_pro[7] = 48 + subop;
 8002158:	d09f4f17 	ldw	r2,32060(gp)
 800215c:	10800c04 	addi	r2,r2,48
 8002160:	1007883a 	mov	r3,r2
 8002164:	00820074 	movhi	r2,2049
 8002168:	10988104 	addi	r2,r2,25092
 800216c:	10c001c5 	stb	r3,7(r2)
	str_pro[9] = 48 + (tmp2 / 100);
 8002170:	e0bffd17 	ldw	r2,-12(fp)
 8002174:	1009883a 	mov	r4,r2
 8002178:	01401904 	movi	r5,100
 800217c:	8002bf80 	call	8002bf8 <__divsi3>
 8002180:	10800c04 	addi	r2,r2,48
 8002184:	1007883a 	mov	r3,r2
 8002188:	00820074 	movhi	r2,2049
 800218c:	10988104 	addi	r2,r2,25092
 8002190:	10c00245 	stb	r3,9(r2)
	str_pro[10] = 48 + (tmp2 / 10 % 10);
 8002194:	e0bffd17 	ldw	r2,-12(fp)
 8002198:	1009883a 	mov	r4,r2
 800219c:	01400284 	movi	r5,10
 80021a0:	8002bf80 	call	8002bf8 <__divsi3>
 80021a4:	1009883a 	mov	r4,r2
 80021a8:	01400284 	movi	r5,10
 80021ac:	8002c4c0 	call	8002c4c <__modsi3>
 80021b0:	10800c04 	addi	r2,r2,48
 80021b4:	1007883a 	mov	r3,r2
 80021b8:	00820074 	movhi	r2,2049
 80021bc:	10988104 	addi	r2,r2,25092
 80021c0:	10c00285 	stb	r3,10(r2)
	str_pro[11] = 48 + (tmp2 % 10);
 80021c4:	e0bffd17 	ldw	r2,-12(fp)
 80021c8:	1009883a 	mov	r4,r2
 80021cc:	01400284 	movi	r5,10
 80021d0:	8002c4c0 	call	8002c4c <__modsi3>
 80021d4:	10800c04 	addi	r2,r2,48
 80021d8:	1007883a 	mov	r3,r2
 80021dc:	00820074 	movhi	r2,2049
 80021e0:	10988104 	addi	r2,r2,25092
 80021e4:	10c002c5 	stb	r3,11(r2)
	LCD_Disp(2, 0, str_pro, 13);
 80021e8:	01000084 	movi	r4,2
 80021ec:	000b883a 	mov	r5,zero
 80021f0:	01820074 	movhi	r6,2049
 80021f4:	31988104 	addi	r6,r6,25092
 80021f8:	01c00344 	movi	r7,13
 80021fc:	800005c0 	call	800005c <LCD_Disp>

	// hahaha
	if((int)(Softmax[ans] * 100) < 65) {
 8002200:	d0df5117 	ldw	r3,32068(gp)
 8002204:	008200b4 	movhi	r2,2050
 8002208:	10988804 	addi	r2,r2,25120
 800220c:	180690fa 	slli	r3,r3,3
 8002210:	10c9883a 	add	r4,r2,r3
 8002214:	20800017 	ldw	r2,0(r4)
 8002218:	20c00117 	ldw	r3,4(r4)
 800221c:	1009883a 	mov	r4,r2
 8002220:	180b883a 	mov	r5,r3
 8002224:	000d883a 	mov	r6,zero
 8002228:	01d01674 	movhi	r7,16473
 800222c:	8003fe00 	call	8003fe0 <__muldf3>
 8002230:	1009883a 	mov	r4,r2
 8002234:	180b883a 	mov	r5,r3
 8002238:	2005883a 	mov	r2,r4
 800223c:	2807883a 	mov	r3,r5
 8002240:	1009883a 	mov	r4,r2
 8002244:	180b883a 	mov	r5,r3
 8002248:	8004fd40 	call	8004fd4 <__fixdfsi>
 800224c:	10801048 	cmpgei	r2,r2,65
 8002250:	10000f1e 	bne	r2,zero,8002290 <Recognition+0x84c>
		LCD_Disp(1, 0, "Do not xjb Draw", 15);
 8002254:	01000044 	movi	r4,1
 8002258:	000b883a 	mov	r5,zero
 800225c:	01820034 	movhi	r6,2048
 8002260:	31999c04 	addi	r6,r6,26224
 8002264:	01c003c4 	movi	r7,15
 8002268:	800005c0 	call	800005c <LCD_Disp>
		LCD_Disp(2, 0, "Duo Lao A      ", 15);
 800226c:	01000084 	movi	r4,2
 8002270:	000b883a 	mov	r5,zero
 8002274:	01820034 	movhi	r6,2048
 8002278:	3199a004 	addi	r6,r6,26240
 800227c:	01c003c4 	movi	r7,15
 8002280:	800005c0 	call	800005c <LCD_Disp>
		*(pUser_SEG8) = 0xffff0000;
 8002284:	d0a00117 	ldw	r2,-32764(gp)
 8002288:	00fffff4 	movhi	r3,65535
 800228c:	10c00015 	stw	r3,0(r2)
	}

	// When recognizing work is just finished, only 'clear screen' button is enabled.
	recognize_flag = 1;
 8002290:	00800044 	movi	r2,1
 8002294:	d09f5005 	stb	r2,32064(gp)
}
 8002298:	e6fffe04 	addi	sp,fp,-8
 800229c:	dfc00317 	ldw	ra,12(sp)
 80022a0:	df000217 	ldw	fp,8(sp)
 80022a4:	dc400117 	ldw	r17,4(sp)
 80022a8:	dc000017 	ldw	r16,0(sp)
 80022ac:	dec00404 	addi	sp,sp,16
 80022b0:	f800283a 	ret

080022b4 <main>:

int main() {
 80022b4:	defff304 	addi	sp,sp,-52
 80022b8:	dfc00c15 	stw	ra,48(sp)
 80022bc:	df000b15 	stw	fp,44(sp)
 80022c0:	df000b04 	addi	fp,sp,44
	printf("Program starts.\n");
 80022c4:	01020034 	movhi	r4,2048
 80022c8:	2119a404 	addi	r4,r4,26256
 80022cc:	80052a80 	call	80052a8 <puts>
	unsigned char initial_0;
	initial_0 = 1;  // Do not update when the program is just started.
 80022d0:	00800044 	movi	r2,1
 80022d4:	e0bff505 	stb	r2,-44(fp)
	unsigned int x_coord, y_coord, coord_result, last_x, last_y, pixel_i, pixel_j;
	int i, j;
	Reset_Screen();
 80022d8:	80018f40 	call	80018f4 <Reset_Screen>

	unsigned char tmp;
	*(pUser_LTM_ADC) = 1;   // Set to read-data mode
 80022dc:	d0a00217 	ldw	r2,-32760(gp)
 80022e0:	00c00044 	movi	r3,1
 80022e4:	10c00015 	stw	r3,0(r2)
	while(1) {
		coord_result = *(pUser_LTM_ADC);
 80022e8:	d0a00217 	ldw	r2,-32760(gp)
 80022ec:	10800017 	ldw	r2,0(r2)
 80022f0:	e0bffa15 	stw	r2,-24(fp)
		x_coord = (coord_result & 0x0fff0000) >> 16;
 80022f4:	e0bffa17 	ldw	r2,-24(fp)
 80022f8:	1083ffec 	andhi	r2,r2,4095
 80022fc:	1004d43a 	srli	r2,r2,16
 8002300:	e0bffb15 	stw	r2,-20(fp)
		y_coord = coord_result & 0x00000fff;
 8002304:	e0bffa17 	ldw	r2,-24(fp)
 8002308:	1083ffcc 	andi	r2,r2,4095
 800230c:	e0bffc15 	stw	r2,-16(fp)
		if(initial_0 == 1) {
 8002310:	e0bff503 	ldbu	r2,-44(fp)
 8002314:	10800058 	cmpnei	r2,r2,1
 8002318:	1000051e 	bne	r2,zero,8002330 <main+0x7c>
			initial_0 = 0;
 800231c:	e03ff505 	stb	zero,-44(fp)
			last_x = x_coord;
 8002320:	e0bffb17 	ldw	r2,-20(fp)
 8002324:	e0bff615 	stw	r2,-40(fp)
			last_y = y_coord;
 8002328:	e0bffc17 	ldw	r2,-16(fp)
 800232c:	e0bff715 	stw	r2,-36(fp)
		}
		if(x_coord != last_x || y_coord != last_y) { // update stored coordinates
 8002330:	e0fffb17 	ldw	r3,-20(fp)
 8002334:	e0bff617 	ldw	r2,-40(fp)
 8002338:	1880031e 	bne	r3,r2,8002348 <main+0x94>
 800233c:	e0fffc17 	ldw	r3,-16(fp)
 8002340:	e0bff717 	ldw	r2,-36(fp)
 8002344:	18806926 	beq	r3,r2,80024ec <main+0x238>
			last_x = x_coord;
 8002348:	e0bffb17 	ldw	r2,-20(fp)
 800234c:	e0bff615 	stw	r2,-40(fp)
			last_y = y_coord;
 8002350:	e0bffc17 	ldw	r2,-16(fp)
 8002354:	e0bff715 	stw	r2,-36(fp)
			if(y_coord < 820) { // Tap the left part of the screen to start recognizing the written digit
 8002358:	e0bffc17 	ldw	r2,-16(fp)
 800235c:	1080cd28 	cmpgeui	r2,r2,820
 8002360:	1000021e 	bne	r2,zero,800236c <main+0xb8>
				Recognition();
 8002364:	8001a440 	call	8001a44 <Recognition>
 8002368:	00006006 	br	80024ec <main+0x238>
			}
			else {
				if(y_coord >= 3276) // Tap the right part of the screen to clear it
 800236c:	e0bffc17 	ldw	r2,-16(fp)
 8002370:	10833330 	cmpltui	r2,r2,3276
 8002374:	1000021e 	bne	r2,zero,8002380 <main+0xcc>
					Reset_Screen();
 8002378:	80018f40 	call	80018f4 <Reset_Screen>
 800237c:	00005b06 	br	80024ec <main+0x238>
				else {
					if(recognize_flag == 0) { // When recognizing work is just finished, only 'clear screen' button is enabled.
 8002380:	d09f5003 	ldbu	r2,32064(gp)
 8002384:	10803fcc 	andi	r2,r2,255
 8002388:	1000581e 	bne	r2,zero,80024ec <main+0x238>
						pixel_i = 800 - (y_coord * 800 / 4096);
 800238c:	e0bffc17 	ldw	r2,-16(fp)
 8002390:	1080c824 	muli	r2,r2,800
 8002394:	1004d33a 	srli	r2,r2,12
 8002398:	00c0c804 	movi	r3,800
 800239c:	1885c83a 	sub	r2,r3,r2
 80023a0:	e0bffd15 	stw	r2,-12(fp)
						pixel_j = 480 - (x_coord * 480 / 4096);
 80023a4:	e0bffb17 	ldw	r2,-20(fp)
 80023a8:	10807824 	muli	r2,r2,480
 80023ac:	1004d33a 	srli	r2,r2,12
 80023b0:	00c07804 	movi	r3,480
 80023b4:	1885c83a 	sub	r2,r3,r2
 80023b8:	e0bffe15 	stw	r2,-8(fp)
						for(i = pixel_i - 20; i <= pixel_i + 20; i++)
 80023bc:	e0bffd17 	ldw	r2,-12(fp)
 80023c0:	10bffb04 	addi	r2,r2,-20
 80023c4:	e0bff815 	stw	r2,-32(fp)
 80023c8:	00004406 	br	80024dc <main+0x228>
							for(j = pixel_j - 20; j <= pixel_j + 20; j++)
 80023cc:	e0bffe17 	ldw	r2,-8(fp)
 80023d0:	10bffb04 	addi	r2,r2,-20
 80023d4:	e0bff915 	stw	r2,-28(fp)
 80023d8:	00003906 	br	80024c0 <main+0x20c>
								if(i >= 160 && j >= 0 && i < 640 && j < 480) { // Draw a dot on the screen
 80023dc:	e0bff817 	ldw	r2,-32(fp)
 80023e0:	10802810 	cmplti	r2,r2,160
 80023e4:	1000331e 	bne	r2,zero,80024b4 <main+0x200>
 80023e8:	e0bff917 	ldw	r2,-28(fp)
 80023ec:	10003116 	blt	r2,zero,80024b4 <main+0x200>
 80023f0:	e0bff817 	ldw	r2,-32(fp)
 80023f4:	1080a008 	cmpgei	r2,r2,640
 80023f8:	10002e1e 	bne	r2,zero,80024b4 <main+0x200>
 80023fc:	e0bff917 	ldw	r2,-28(fp)
 8002400:	10807808 	cmpgei	r2,r2,480
 8002404:	10002b1e 	bne	r2,zero,80024b4 <main+0x200>
									tmp = Image_Mask[(i - pixel_i + 20) + (j - pixel_j + 20)*41];
 8002408:	e0fff817 	ldw	r3,-32(fp)
 800240c:	e0bffd17 	ldw	r2,-12(fp)
 8002410:	1887c83a 	sub	r3,r3,r2
 8002414:	e13ff917 	ldw	r4,-28(fp)
 8002418:	e0bffe17 	ldw	r2,-8(fp)
 800241c:	2085c83a 	sub	r2,r4,r2
 8002420:	10800a64 	muli	r2,r2,41
 8002424:	1885883a 	add	r2,r3,r2
 8002428:	10c0d204 	addi	r3,r2,840
 800242c:	00820074 	movhi	r2,2049
 8002430:	1096d904 	addi	r2,r2,23396
 8002434:	10c5883a 	add	r2,r2,r3
 8002438:	10800003 	ldbu	r2,0(r2)
 800243c:	e0bfff05 	stb	r2,-4(fp)
									if(Screen_Buffer[i][j] > tmp) {
 8002440:	00820234 	movhi	r2,2056
 8002444:	10bee804 	addi	r2,r2,-1120
 8002448:	e0fff817 	ldw	r3,-32(fp)
 800244c:	19007824 	muli	r4,r3,480
 8002450:	e0fff917 	ldw	r3,-28(fp)
 8002454:	20c7883a 	add	r3,r4,r3
 8002458:	10c5883a 	add	r2,r2,r3
 800245c:	10800003 	ldbu	r2,0(r2)
 8002460:	10803fcc 	andi	r2,r2,255
 8002464:	e0ffff03 	ldbu	r3,-4(fp)
 8002468:	1880122e 	bgeu	r3,r2,80024b4 <main+0x200>
										Screen_Buffer[i][j] = tmp;
 800246c:	00820234 	movhi	r2,2056
 8002470:	10bee804 	addi	r2,r2,-1120
 8002474:	e0fff817 	ldw	r3,-32(fp)
 8002478:	19007824 	muli	r4,r3,480
 800247c:	e0fff917 	ldw	r3,-28(fp)
 8002480:	20c7883a 	add	r3,r4,r3
 8002484:	10c5883a 	add	r2,r2,r3
 8002488:	e0ffff03 	ldbu	r3,-4(fp)
 800248c:	10c00005 	stb	r3,0(r2)
										*(pUser_LTM_Buf) = ((i + j*800) << 12) + tmp;
 8002490:	d0a00317 	ldw	r2,-32756(gp)
 8002494:	e0fff917 	ldw	r3,-28(fp)
 8002498:	1900c824 	muli	r4,r3,800
 800249c:	e0fff817 	ldw	r3,-32(fp)
 80024a0:	20c7883a 	add	r3,r4,r3
 80024a4:	1808933a 	slli	r4,r3,12
 80024a8:	e0ffff03 	ldbu	r3,-4(fp)
 80024ac:	20c7883a 	add	r3,r4,r3
 80024b0:	10c00015 	stw	r3,0(r2)
				else {
					if(recognize_flag == 0) { // When recognizing work is just finished, only 'clear screen' button is enabled.
						pixel_i = 800 - (y_coord * 800 / 4096);
						pixel_j = 480 - (x_coord * 480 / 4096);
						for(i = pixel_i - 20; i <= pixel_i + 20; i++)
							for(j = pixel_j - 20; j <= pixel_j + 20; j++)
 80024b4:	e0bff917 	ldw	r2,-28(fp)
 80024b8:	10800044 	addi	r2,r2,1
 80024bc:	e0bff915 	stw	r2,-28(fp)
 80024c0:	e0bff917 	ldw	r2,-28(fp)
 80024c4:	e0fffe17 	ldw	r3,-8(fp)
 80024c8:	18c00504 	addi	r3,r3,20
 80024cc:	18bfc32e 	bgeu	r3,r2,80023dc <__alt_data_end+0xf80023dc>
					Reset_Screen();
				else {
					if(recognize_flag == 0) { // When recognizing work is just finished, only 'clear screen' button is enabled.
						pixel_i = 800 - (y_coord * 800 / 4096);
						pixel_j = 480 - (x_coord * 480 / 4096);
						for(i = pixel_i - 20; i <= pixel_i + 20; i++)
 80024d0:	e0bff817 	ldw	r2,-32(fp)
 80024d4:	10800044 	addi	r2,r2,1
 80024d8:	e0bff815 	stw	r2,-32(fp)
 80024dc:	e0bff817 	ldw	r2,-32(fp)
 80024e0:	e0fffd17 	ldw	r3,-12(fp)
 80024e4:	18c00504 	addi	r3,r3,20
 80024e8:	18bfb82e 	bgeu	r3,r2,80023cc <__alt_data_end+0xf80023cc>
								}
					}
				}
			}
		}
	}
 80024ec:	003f7e06 	br	80022e8 <__alt_data_end+0xf80022e8>

080024f0 <exp>:
 80024f0:	defff104 	addi	sp,sp,-60
 80024f4:	dd000d15 	stw	r20,52(sp)
 80024f8:	05020074 	movhi	r20,2049
 80024fc:	dcc00c15 	stw	r19,48(sp)
 8002500:	dc800b15 	stw	r18,44(sp)
 8002504:	dc400a15 	stw	r17,40(sp)
 8002508:	dc000915 	stw	r16,36(sp)
 800250c:	dfc00e15 	stw	ra,56(sp)
 8002510:	a5193604 	addi	r20,r20,25816
 8002514:	2027883a 	mov	r19,r4
 8002518:	2825883a 	mov	r18,r5
 800251c:	80026800 	call	8002680 <__ieee754_exp>
 8002520:	1821883a 	mov	r16,r3
 8002524:	a0c00017 	ldw	r3,0(r20)
 8002528:	1023883a 	mov	r17,r2
 800252c:	00bfffc4 	movi	r2,-1
 8002530:	18802e26 	beq	r3,r2,80025ec <exp+0xfc>
 8002534:	9809883a 	mov	r4,r19
 8002538:	900b883a 	mov	r5,r18
 800253c:	8002b680 	call	8002b68 <finite>
 8002540:	10002a26 	beq	r2,zero,80025ec <exp+0xfc>
 8002544:	01bfbeb4 	movhi	r6,65274
 8002548:	01d021b4 	movhi	r7,16518
 800254c:	318e7bc4 	addi	r6,r6,14831
 8002550:	39cb9084 	addi	r7,r7,11842
 8002554:	9809883a 	mov	r4,r19
 8002558:	900b883a 	mov	r5,r18
 800255c:	8003e200 	call	8003e20 <__gedf2>
 8002560:	00802c16 	blt	zero,r2,8002614 <exp+0x124>
 8002564:	01b54b74 	movhi	r6,54573
 8002568:	01f021f4 	movhi	r7,49287
 800256c:	318c1444 	addi	r6,r6,12369
 8002570:	39d24404 	addi	r7,r7,18704
 8002574:	9809883a 	mov	r4,r19
 8002578:	900b883a 	mov	r5,r18
 800257c:	8003f000 	call	8003f00 <__ledf2>
 8002580:	10001a0e 	bge	r2,zero,80025ec <exp+0xfc>
 8002584:	00800104 	movi	r2,4
 8002588:	d8800015 	stw	r2,0(sp)
 800258c:	a0c00017 	ldw	r3,0(r20)
 8002590:	00820034 	movhi	r2,2048
 8002594:	1099a804 	addi	r2,r2,26272
 8002598:	d8800115 	stw	r2,4(sp)
 800259c:	d8000815 	stw	zero,32(sp)
 80025a0:	dcc00415 	stw	r19,16(sp)
 80025a4:	dc800515 	stw	r18,20(sp)
 80025a8:	dcc00215 	stw	r19,8(sp)
 80025ac:	dc800315 	stw	r18,12(sp)
 80025b0:	d8000615 	stw	zero,24(sp)
 80025b4:	d8000715 	stw	zero,28(sp)
 80025b8:	00800084 	movi	r2,2
 80025bc:	18802c26 	beq	r3,r2,8002670 <exp+0x180>
 80025c0:	d809883a 	mov	r4,sp
 80025c4:	8002b840 	call	8002b84 <matherr>
 80025c8:	10002926 	beq	r2,zero,8002670 <exp+0x180>
 80025cc:	d8800817 	ldw	r2,32(sp)
 80025d0:	10000326 	beq	r2,zero,80025e0 <exp+0xf0>
 80025d4:	80051900 	call	8005190 <__errno>
 80025d8:	d8c00817 	ldw	r3,32(sp)
 80025dc:	10c00015 	stw	r3,0(r2)
 80025e0:	d8800617 	ldw	r2,24(sp)
 80025e4:	d8c00717 	ldw	r3,28(sp)
 80025e8:	00000206 	br	80025f4 <exp+0x104>
 80025ec:	8805883a 	mov	r2,r17
 80025f0:	8007883a 	mov	r3,r16
 80025f4:	dfc00e17 	ldw	ra,56(sp)
 80025f8:	dd000d17 	ldw	r20,52(sp)
 80025fc:	dcc00c17 	ldw	r19,48(sp)
 8002600:	dc800b17 	ldw	r18,44(sp)
 8002604:	dc400a17 	ldw	r17,40(sp)
 8002608:	dc000917 	ldw	r16,36(sp)
 800260c:	dec00f04 	addi	sp,sp,60
 8002610:	f800283a 	ret
 8002614:	00c000c4 	movi	r3,3
 8002618:	d8c00015 	stw	r3,0(sp)
 800261c:	a0800017 	ldw	r2,0(r20)
 8002620:	00c20034 	movhi	r3,2048
 8002624:	18d9a804 	addi	r3,r3,26272
 8002628:	d8c00115 	stw	r3,4(sp)
 800262c:	d8000815 	stw	zero,32(sp)
 8002630:	dcc00415 	stw	r19,16(sp)
 8002634:	dc800515 	stw	r18,20(sp)
 8002638:	dcc00215 	stw	r19,8(sp)
 800263c:	dc800315 	stw	r18,12(sp)
 8002640:	1000061e 	bne	r2,zero,800265c <exp+0x16c>
 8002644:	00b80034 	movhi	r2,57344
 8002648:	d8800615 	stw	r2,24(sp)
 800264c:	0091fc34 	movhi	r2,18416
 8002650:	10bfffc4 	addi	r2,r2,-1
 8002654:	d8800715 	stw	r2,28(sp)
 8002658:	003fd906 	br	80025c0 <__alt_data_end+0xf80025c0>
 800265c:	00dffc34 	movhi	r3,32752
 8002660:	d8c00715 	stw	r3,28(sp)
 8002664:	d8000615 	stw	zero,24(sp)
 8002668:	00c00084 	movi	r3,2
 800266c:	10ffd41e 	bne	r2,r3,80025c0 <__alt_data_end+0xf80025c0>
 8002670:	80051900 	call	8005190 <__errno>
 8002674:	00c00884 	movi	r3,34
 8002678:	10c00015 	stw	r3,0(r2)
 800267c:	003fd306 	br	80025cc <__alt_data_end+0xf80025cc>

08002680 <__ieee754_exp>:
 8002680:	02200034 	movhi	r8,32768
 8002684:	defff604 	addi	sp,sp,-40
 8002688:	423fffc4 	addi	r8,r8,-1
 800268c:	009021b4 	movhi	r2,16518
 8002690:	ddc00715 	stw	r23,28(sp)
 8002694:	dc400115 	stw	r17,4(sp)
 8002698:	dc000015 	stw	r16,0(sp)
 800269c:	dfc00915 	stw	ra,36(sp)
 80026a0:	df000815 	stw	fp,32(sp)
 80026a4:	dd800615 	stw	r22,24(sp)
 80026a8:	dd400515 	stw	r21,20(sp)
 80026ac:	dd000415 	stw	r20,16(sp)
 80026b0:	dcc00315 	stw	r19,12(sp)
 80026b4:	dc800215 	stw	r18,8(sp)
 80026b8:	2a10703a 	and	r8,r5,r8
 80026bc:	108b9044 	addi	r2,r2,11841
 80026c0:	2821883a 	mov	r16,r5
 80026c4:	2023883a 	mov	r17,r4
 80026c8:	282ed7fa 	srli	r23,r5,31
 80026cc:	1200172e 	bgeu	r2,r8,800272c <__ieee754_exp+0xac>
 80026d0:	009ffc34 	movhi	r2,32752
 80026d4:	10bfffc4 	addi	r2,r2,-1
 80026d8:	12002b2e 	bgeu	r2,r8,8002788 <__ieee754_exp+0x108>
 80026dc:	00800434 	movhi	r2,16
 80026e0:	10bfffc4 	addi	r2,r2,-1
 80026e4:	2884703a 	and	r2,r5,r2
 80026e8:	1104b03a 	or	r2,r2,r4
 80026ec:	1000f01e 	bne	r2,zero,8002ab0 <__ieee754_exp+0x430>
 80026f0:	b801171e 	bne	r23,zero,8002b50 <__ieee754_exp+0x4d0>
 80026f4:	2005883a 	mov	r2,r4
 80026f8:	2807883a 	mov	r3,r5
 80026fc:	dfc00917 	ldw	ra,36(sp)
 8002700:	df000817 	ldw	fp,32(sp)
 8002704:	ddc00717 	ldw	r23,28(sp)
 8002708:	dd800617 	ldw	r22,24(sp)
 800270c:	dd400517 	ldw	r21,20(sp)
 8002710:	dd000417 	ldw	r20,16(sp)
 8002714:	dcc00317 	ldw	r19,12(sp)
 8002718:	dc800217 	ldw	r18,8(sp)
 800271c:	dc400117 	ldw	r17,4(sp)
 8002720:	dc000017 	ldw	r16,0(sp)
 8002724:	dec00a04 	addi	sp,sp,40
 8002728:	f800283a 	ret
 800272c:	008ff5b4 	movhi	r2,16342
 8002730:	108b9084 	addi	r2,r2,11842
 8002734:	1200c736 	bltu	r2,r8,8002a54 <__ieee754_exp+0x3d4>
 8002738:	008f8c34 	movhi	r2,15920
 800273c:	10bfffc4 	addi	r2,r2,-1
 8002740:	1200d936 	bltu	r2,r8,8002aa8 <__ieee754_exp+0x428>
 8002744:	01a20034 	movhi	r6,34816
 8002748:	01df8e34 	movhi	r7,32312
 800274c:	319d6704 	addi	r6,r6,30108
 8002750:	39f90f04 	addi	r7,r7,-7108
 8002754:	8002cb80 	call	8002cb8 <__adddf3>
 8002758:	1009883a 	mov	r4,r2
 800275c:	180b883a 	mov	r5,r3
 8002760:	000d883a 	mov	r6,zero
 8002764:	01cffc34 	movhi	r7,16368
 8002768:	8003e200 	call	8003e20 <__gedf2>
 800276c:	0080490e 	bge	zero,r2,8002894 <__ieee754_exp+0x214>
 8002770:	8809883a 	mov	r4,r17
 8002774:	800b883a 	mov	r5,r16
 8002778:	000d883a 	mov	r6,zero
 800277c:	01cffc34 	movhi	r7,16368
 8002780:	8002cb80 	call	8002cb8 <__adddf3>
 8002784:	003fdd06 	br	80026fc <__alt_data_end+0xf80026fc>
 8002788:	01bfbeb4 	movhi	r6,65274
 800278c:	01d021b4 	movhi	r7,16518
 8002790:	318e7bc4 	addi	r6,r6,14831
 8002794:	39cb9084 	addi	r7,r7,11842
 8002798:	8003e200 	call	8003e20 <__gedf2>
 800279c:	0080c816 	blt	zero,r2,8002ac0 <__ieee754_exp+0x440>
 80027a0:	01b54b74 	movhi	r6,54573
 80027a4:	01f021f4 	movhi	r7,49287
 80027a8:	318c1444 	addi	r6,r6,12369
 80027ac:	39d24404 	addi	r7,r7,18704
 80027b0:	8809883a 	mov	r4,r17
 80027b4:	800b883a 	mov	r5,r16
 80027b8:	8003f000 	call	8003f00 <__ledf2>
 80027bc:	1000e416 	blt	r2,zero,8002b50 <__ieee754_exp+0x4d0>
 80027c0:	01994b34 	movhi	r6,25900
 80027c4:	01cffdf4 	movhi	r7,16375
 80027c8:	31a0bf84 	addi	r6,r6,-32002
 80027cc:	39c551c4 	addi	r7,r7,5447
 80027d0:	8809883a 	mov	r4,r17
 80027d4:	800b883a 	mov	r5,r16
 80027d8:	8003fe00 	call	8003fe0 <__muldf3>
 80027dc:	b82e90fa 	slli	r23,r23,3
 80027e0:	1009883a 	mov	r4,r2
 80027e4:	00820034 	movhi	r2,2048
 80027e8:	1099b104 	addi	r2,r2,26308
 80027ec:	15ef883a 	add	r23,r2,r23
 80027f0:	b9800017 	ldw	r6,0(r23)
 80027f4:	b9c00117 	ldw	r7,4(r23)
 80027f8:	180b883a 	mov	r5,r3
 80027fc:	8002cb80 	call	8002cb8 <__adddf3>
 8002800:	180b883a 	mov	r5,r3
 8002804:	1009883a 	mov	r4,r2
 8002808:	8004fd40 	call	8004fd4 <__fixdfsi>
 800280c:	1009883a 	mov	r4,r2
 8002810:	1025883a 	mov	r18,r2
 8002814:	800505c0 	call	800505c <__floatsidf>
 8002818:	01cff9b4 	movhi	r7,16358
 800281c:	1009883a 	mov	r4,r2
 8002820:	180b883a 	mov	r5,r3
 8002824:	39cb9084 	addi	r7,r7,11842
 8002828:	01bfb834 	movhi	r6,65248
 800282c:	102d883a 	mov	r22,r2
 8002830:	182b883a 	mov	r21,r3
 8002834:	8003fe00 	call	8003fe0 <__muldf3>
 8002838:	8809883a 	mov	r4,r17
 800283c:	800b883a 	mov	r5,r16
 8002840:	100d883a 	mov	r6,r2
 8002844:	180f883a 	mov	r7,r3
 8002848:	80047040 	call	8004704 <__subdf3>
 800284c:	018d5e74 	movhi	r6,13689
 8002850:	01cf7ab4 	movhi	r7,15850
 8002854:	b009883a 	mov	r4,r22
 8002858:	a80b883a 	mov	r5,r21
 800285c:	318f1d84 	addi	r6,r6,15478
 8002860:	39ce7bc4 	addi	r7,r7,14831
 8002864:	1029883a 	mov	r20,r2
 8002868:	1827883a 	mov	r19,r3
 800286c:	8003fe00 	call	8003fe0 <__muldf3>
 8002870:	102d883a 	mov	r22,r2
 8002874:	182b883a 	mov	r21,r3
 8002878:	a009883a 	mov	r4,r20
 800287c:	980b883a 	mov	r5,r19
 8002880:	b00d883a 	mov	r6,r22
 8002884:	a80f883a 	mov	r7,r21
 8002888:	80047040 	call	8004704 <__subdf3>
 800288c:	1023883a 	mov	r17,r2
 8002890:	1821883a 	mov	r16,r3
 8002894:	880d883a 	mov	r6,r17
 8002898:	800f883a 	mov	r7,r16
 800289c:	8809883a 	mov	r4,r17
 80028a0:	800b883a 	mov	r5,r16
 80028a4:	8003fe00 	call	8003fe0 <__muldf3>
 80028a8:	019caff4 	movhi	r6,29375
 80028ac:	01cf99b4 	movhi	r7,15974
 80028b0:	1009883a 	mov	r4,r2
 80028b4:	180b883a 	mov	r5,r3
 80028b8:	31a93404 	addi	r6,r6,-23344
 80028bc:	39cdda44 	addi	r7,r7,14185
 80028c0:	1039883a 	mov	fp,r2
 80028c4:	182f883a 	mov	r23,r3
 80028c8:	8003fe00 	call	8003fe0 <__muldf3>
 80028cc:	01b174b4 	movhi	r6,50642
 80028d0:	01cfaf34 	movhi	r7,16060
 80028d4:	1009883a 	mov	r4,r2
 80028d8:	180b883a 	mov	r5,r3
 80028dc:	319afc44 	addi	r6,r6,27633
 80028e0:	39ef5044 	addi	r7,r7,-17087
 80028e4:	80047040 	call	8004704 <__subdf3>
 80028e8:	e00d883a 	mov	r6,fp
 80028ec:	b80f883a 	mov	r7,r23
 80028f0:	1009883a 	mov	r4,r2
 80028f4:	180b883a 	mov	r5,r3
 80028f8:	8003fe00 	call	8003fe0 <__muldf3>
 80028fc:	01abc9b4 	movhi	r6,44838
 8002900:	01cfc474 	movhi	r7,16145
 8002904:	1009883a 	mov	r4,r2
 8002908:	180b883a 	mov	r5,r3
 800290c:	31b78b04 	addi	r6,r6,-8660
 8002910:	39d59a84 	addi	r7,r7,22122
 8002914:	8002cb80 	call	8002cb8 <__adddf3>
 8002918:	e00d883a 	mov	r6,fp
 800291c:	b80f883a 	mov	r7,r23
 8002920:	1009883a 	mov	r4,r2
 8002924:	180b883a 	mov	r5,r3
 8002928:	8003fe00 	call	8003fe0 <__muldf3>
 800292c:	0185aff4 	movhi	r6,5823
 8002930:	01cfd9f4 	movhi	r7,16231
 8002934:	1009883a 	mov	r4,r2
 8002938:	180b883a 	mov	r5,r3
 800293c:	31af64c4 	addi	r6,r6,-17005
 8002940:	39f05b04 	addi	r7,r7,-16020
 8002944:	80047040 	call	8004704 <__subdf3>
 8002948:	e00d883a 	mov	r6,fp
 800294c:	b80f883a 	mov	r7,r23
 8002950:	1009883a 	mov	r4,r2
 8002954:	180b883a 	mov	r5,r3
 8002958:	8003fe00 	call	8003fe0 <__muldf3>
 800295c:	01955574 	movhi	r6,21845
 8002960:	01cff174 	movhi	r7,16325
 8002964:	1009883a 	mov	r4,r2
 8002968:	180b883a 	mov	r5,r3
 800296c:	31954f84 	addi	r6,r6,21822
 8002970:	39d55544 	addi	r7,r7,21845
 8002974:	8002cb80 	call	8002cb8 <__adddf3>
 8002978:	e00d883a 	mov	r6,fp
 800297c:	b80f883a 	mov	r7,r23
 8002980:	1009883a 	mov	r4,r2
 8002984:	180b883a 	mov	r5,r3
 8002988:	8003fe00 	call	8003fe0 <__muldf3>
 800298c:	8809883a 	mov	r4,r17
 8002990:	800b883a 	mov	r5,r16
 8002994:	100d883a 	mov	r6,r2
 8002998:	180f883a 	mov	r7,r3
 800299c:	80047040 	call	8004704 <__subdf3>
 80029a0:	1039883a 	mov	fp,r2
 80029a4:	182f883a 	mov	r23,r3
 80029a8:	90004d26 	beq	r18,zero,8002ae0 <__ieee754_exp+0x460>
 80029ac:	8809883a 	mov	r4,r17
 80029b0:	800b883a 	mov	r5,r16
 80029b4:	100d883a 	mov	r6,r2
 80029b8:	180f883a 	mov	r7,r3
 80029bc:	8003fe00 	call	8003fe0 <__muldf3>
 80029c0:	0009883a 	mov	r4,zero
 80029c4:	01500034 	movhi	r5,16384
 80029c8:	e00d883a 	mov	r6,fp
 80029cc:	b80f883a 	mov	r7,r23
 80029d0:	1023883a 	mov	r17,r2
 80029d4:	1821883a 	mov	r16,r3
 80029d8:	80047040 	call	8004704 <__subdf3>
 80029dc:	8809883a 	mov	r4,r17
 80029e0:	800b883a 	mov	r5,r16
 80029e4:	100d883a 	mov	r6,r2
 80029e8:	180f883a 	mov	r7,r3
 80029ec:	80035540 	call	8003554 <__divdf3>
 80029f0:	b009883a 	mov	r4,r22
 80029f4:	a80b883a 	mov	r5,r21
 80029f8:	100d883a 	mov	r6,r2
 80029fc:	180f883a 	mov	r7,r3
 8002a00:	80047040 	call	8004704 <__subdf3>
 8002a04:	1009883a 	mov	r4,r2
 8002a08:	180b883a 	mov	r5,r3
 8002a0c:	a00d883a 	mov	r6,r20
 8002a10:	980f883a 	mov	r7,r19
 8002a14:	80047040 	call	8004704 <__subdf3>
 8002a18:	0009883a 	mov	r4,zero
 8002a1c:	014ffc34 	movhi	r5,16368
 8002a20:	100d883a 	mov	r6,r2
 8002a24:	180f883a 	mov	r7,r3
 8002a28:	80047040 	call	8004704 <__subdf3>
 8002a2c:	013f00c4 	movi	r4,-1021
 8002a30:	91004a0e 	bge	r18,r4,8002b5c <__ieee754_exp+0x4dc>
 8002a34:	9140fa04 	addi	r5,r18,1000
 8002a38:	280a953a 	slli	r5,r5,20
 8002a3c:	1009883a 	mov	r4,r2
 8002a40:	000d883a 	mov	r6,zero
 8002a44:	28cb883a 	add	r5,r5,r3
 8002a48:	01c05c34 	movhi	r7,368
 8002a4c:	8003fe00 	call	8003fe0 <__muldf3>
 8002a50:	003f2a06 	br	80026fc <__alt_data_end+0xf80026fc>
 8002a54:	008ffc74 	movhi	r2,16369
 8002a58:	10a8ac44 	addi	r2,r2,-23887
 8002a5c:	123f5836 	bltu	r2,r8,80027c0 <__alt_data_end+0xf80027c0>
 8002a60:	b82290fa 	slli	r17,r23,3
 8002a64:	00820034 	movhi	r2,2048
 8002a68:	1099ad04 	addi	r2,r2,26292
 8002a6c:	1445883a 	add	r2,r2,r17
 8002a70:	11800017 	ldw	r6,0(r2)
 8002a74:	11c00117 	ldw	r7,4(r2)
 8002a78:	05e5c83a 	sub	r18,zero,r23
 8002a7c:	95e5c83a 	sub	r18,r18,r23
 8002a80:	80047040 	call	8004704 <__subdf3>
 8002a84:	1029883a 	mov	r20,r2
 8002a88:	00820034 	movhi	r2,2048
 8002a8c:	1099a904 	addi	r2,r2,26276
 8002a90:	1463883a 	add	r17,r2,r17
 8002a94:	1827883a 	mov	r19,r3
 8002a98:	8d800017 	ldw	r22,0(r17)
 8002a9c:	8d400117 	ldw	r21,4(r17)
 8002aa0:	94800044 	addi	r18,r18,1
 8002aa4:	003f7406 	br	8002878 <__alt_data_end+0xf8002878>
 8002aa8:	0025883a 	mov	r18,zero
 8002aac:	003f7906 	br	8002894 <__alt_data_end+0xf8002894>
 8002ab0:	200d883a 	mov	r6,r4
 8002ab4:	280f883a 	mov	r7,r5
 8002ab8:	8002cb80 	call	8002cb8 <__adddf3>
 8002abc:	003f0f06 	br	80026fc <__alt_data_end+0xf80026fc>
 8002ac0:	01220034 	movhi	r4,34816
 8002ac4:	015f8e34 	movhi	r5,32312
 8002ac8:	211d6704 	addi	r4,r4,30108
 8002acc:	29790f04 	addi	r5,r5,-7108
 8002ad0:	200d883a 	mov	r6,r4
 8002ad4:	280f883a 	mov	r7,r5
 8002ad8:	8003fe00 	call	8003fe0 <__muldf3>
 8002adc:	003f0706 	br	80026fc <__alt_data_end+0xf80026fc>
 8002ae0:	8809883a 	mov	r4,r17
 8002ae4:	800b883a 	mov	r5,r16
 8002ae8:	100d883a 	mov	r6,r2
 8002aec:	180f883a 	mov	r7,r3
 8002af0:	8003fe00 	call	8003fe0 <__muldf3>
 8002af4:	e009883a 	mov	r4,fp
 8002af8:	b80b883a 	mov	r5,r23
 8002afc:	000d883a 	mov	r6,zero
 8002b00:	01d00034 	movhi	r7,16384
 8002b04:	1027883a 	mov	r19,r2
 8002b08:	1825883a 	mov	r18,r3
 8002b0c:	80047040 	call	8004704 <__subdf3>
 8002b10:	9809883a 	mov	r4,r19
 8002b14:	900b883a 	mov	r5,r18
 8002b18:	100d883a 	mov	r6,r2
 8002b1c:	180f883a 	mov	r7,r3
 8002b20:	80035540 	call	8003554 <__divdf3>
 8002b24:	880d883a 	mov	r6,r17
 8002b28:	800f883a 	mov	r7,r16
 8002b2c:	1009883a 	mov	r4,r2
 8002b30:	180b883a 	mov	r5,r3
 8002b34:	80047040 	call	8004704 <__subdf3>
 8002b38:	0009883a 	mov	r4,zero
 8002b3c:	014ffc34 	movhi	r5,16368
 8002b40:	100d883a 	mov	r6,r2
 8002b44:	180f883a 	mov	r7,r3
 8002b48:	80047040 	call	8004704 <__subdf3>
 8002b4c:	003eeb06 	br	80026fc <__alt_data_end+0xf80026fc>
 8002b50:	0005883a 	mov	r2,zero
 8002b54:	0007883a 	mov	r3,zero
 8002b58:	003ee806 	br	80026fc <__alt_data_end+0xf80026fc>
 8002b5c:	9020953a 	slli	r16,r18,20
 8002b60:	80c7883a 	add	r3,r16,r3
 8002b64:	003ee506 	br	80026fc <__alt_data_end+0xf80026fc>

08002b68 <finite>:
 8002b68:	00a00034 	movhi	r2,32768
 8002b6c:	10bfffc4 	addi	r2,r2,-1
 8002b70:	288a703a 	and	r5,r5,r2
 8002b74:	00e00434 	movhi	r3,32784
 8002b78:	28c5883a 	add	r2,r5,r3
 8002b7c:	1004d7fa 	srli	r2,r2,31
 8002b80:	f800283a 	ret

08002b84 <matherr>:
 8002b84:	0005883a 	mov	r2,zero
 8002b88:	f800283a 	ret

08002b8c <udivmodsi4>:
 8002b8c:	2900182e 	bgeu	r5,r4,8002bf0 <udivmodsi4+0x64>
 8002b90:	28001716 	blt	r5,zero,8002bf0 <udivmodsi4+0x64>
 8002b94:	00800804 	movi	r2,32
 8002b98:	00c00044 	movi	r3,1
 8002b9c:	00000206 	br	8002ba8 <udivmodsi4+0x1c>
 8002ba0:	10001126 	beq	r2,zero,8002be8 <udivmodsi4+0x5c>
 8002ba4:	28000516 	blt	r5,zero,8002bbc <udivmodsi4+0x30>
 8002ba8:	294b883a 	add	r5,r5,r5
 8002bac:	10bfffc4 	addi	r2,r2,-1
 8002bb0:	18c7883a 	add	r3,r3,r3
 8002bb4:	293ffa36 	bltu	r5,r4,8002ba0 <__alt_data_end+0xf8002ba0>
 8002bb8:	18000b26 	beq	r3,zero,8002be8 <udivmodsi4+0x5c>
 8002bbc:	0005883a 	mov	r2,zero
 8002bc0:	21400236 	bltu	r4,r5,8002bcc <udivmodsi4+0x40>
 8002bc4:	2149c83a 	sub	r4,r4,r5
 8002bc8:	10c4b03a 	or	r2,r2,r3
 8002bcc:	1806d07a 	srli	r3,r3,1
 8002bd0:	280ad07a 	srli	r5,r5,1
 8002bd4:	183ffa1e 	bne	r3,zero,8002bc0 <__alt_data_end+0xf8002bc0>
 8002bd8:	3000011e 	bne	r6,zero,8002be0 <udivmodsi4+0x54>
 8002bdc:	f800283a 	ret
 8002be0:	2005883a 	mov	r2,r4
 8002be4:	f800283a 	ret
 8002be8:	0005883a 	mov	r2,zero
 8002bec:	003ffa06 	br	8002bd8 <__alt_data_end+0xf8002bd8>
 8002bf0:	00c00044 	movi	r3,1
 8002bf4:	003ff106 	br	8002bbc <__alt_data_end+0xf8002bbc>

08002bf8 <__divsi3>:
 8002bf8:	defffe04 	addi	sp,sp,-8
 8002bfc:	dfc00115 	stw	ra,4(sp)
 8002c00:	dc000015 	stw	r16,0(sp)
 8002c04:	20000b16 	blt	r4,zero,8002c34 <__divsi3+0x3c>
 8002c08:	0021883a 	mov	r16,zero
 8002c0c:	28000c16 	blt	r5,zero,8002c40 <__divsi3+0x48>
 8002c10:	000d883a 	mov	r6,zero
 8002c14:	8002b8c0 	call	8002b8c <udivmodsi4>
 8002c18:	0407c83a 	sub	r3,zero,r16
 8002c1c:	1884f03a 	xor	r2,r3,r2
 8002c20:	1405883a 	add	r2,r2,r16
 8002c24:	dfc00117 	ldw	ra,4(sp)
 8002c28:	dc000017 	ldw	r16,0(sp)
 8002c2c:	dec00204 	addi	sp,sp,8
 8002c30:	f800283a 	ret
 8002c34:	0109c83a 	sub	r4,zero,r4
 8002c38:	04000044 	movi	r16,1
 8002c3c:	283ff40e 	bge	r5,zero,8002c10 <__alt_data_end+0xf8002c10>
 8002c40:	014bc83a 	sub	r5,zero,r5
 8002c44:	8400005c 	xori	r16,r16,1
 8002c48:	003ff106 	br	8002c10 <__alt_data_end+0xf8002c10>

08002c4c <__modsi3>:
 8002c4c:	defffd04 	addi	sp,sp,-12
 8002c50:	dfc00215 	stw	ra,8(sp)
 8002c54:	dc400115 	stw	r17,4(sp)
 8002c58:	dc000015 	stw	r16,0(sp)
 8002c5c:	20000c16 	blt	r4,zero,8002c90 <__modsi3+0x44>
 8002c60:	0023883a 	mov	r17,zero
 8002c64:	0021883a 	mov	r16,zero
 8002c68:	28000d16 	blt	r5,zero,8002ca0 <__modsi3+0x54>
 8002c6c:	01800044 	movi	r6,1
 8002c70:	8002b8c0 	call	8002b8c <udivmodsi4>
 8002c74:	1404f03a 	xor	r2,r2,r16
 8002c78:	8885883a 	add	r2,r17,r2
 8002c7c:	dfc00217 	ldw	ra,8(sp)
 8002c80:	dc400117 	ldw	r17,4(sp)
 8002c84:	dc000017 	ldw	r16,0(sp)
 8002c88:	dec00304 	addi	sp,sp,12
 8002c8c:	f800283a 	ret
 8002c90:	0109c83a 	sub	r4,zero,r4
 8002c94:	04400044 	movi	r17,1
 8002c98:	043fffc4 	movi	r16,-1
 8002c9c:	283ff30e 	bge	r5,zero,8002c6c <__alt_data_end+0xf8002c6c>
 8002ca0:	014bc83a 	sub	r5,zero,r5
 8002ca4:	003ff106 	br	8002c6c <__alt_data_end+0xf8002c6c>

08002ca8 <__udivsi3>:
 8002ca8:	000d883a 	mov	r6,zero
 8002cac:	8002b8c1 	jmpi	8002b8c <udivmodsi4>

08002cb0 <__umodsi3>:
 8002cb0:	01800044 	movi	r6,1
 8002cb4:	8002b8c1 	jmpi	8002b8c <udivmodsi4>

08002cb8 <__adddf3>:
 8002cb8:	02000434 	movhi	r8,16
 8002cbc:	423fffc4 	addi	r8,r8,-1
 8002cc0:	defffb04 	addi	sp,sp,-20
 8002cc4:	2a12703a 	and	r9,r5,r8
 8002cc8:	2806d7fa 	srli	r3,r5,31
 8002ccc:	3a10703a 	and	r8,r7,r8
 8002cd0:	3804d53a 	srli	r2,r7,20
 8002cd4:	3014d77a 	srli	r10,r6,29
 8002cd8:	dc000015 	stw	r16,0(sp)
 8002cdc:	481290fa 	slli	r9,r9,3
 8002ce0:	2820d53a 	srli	r16,r5,20
 8002ce4:	401090fa 	slli	r8,r8,3
 8002ce8:	200ad77a 	srli	r5,r4,29
 8002cec:	380ed7fa 	srli	r7,r7,31
 8002cf0:	dc800215 	stw	r18,8(sp)
 8002cf4:	dc400115 	stw	r17,4(sp)
 8002cf8:	dfc00415 	stw	ra,16(sp)
 8002cfc:	dcc00315 	stw	r19,12(sp)
 8002d00:	1c803fcc 	andi	r18,r3,255
 8002d04:	8401ffcc 	andi	r16,r16,2047
 8002d08:	494ab03a 	or	r5,r9,r5
 8002d0c:	202290fa 	slli	r17,r4,3
 8002d10:	1081ffcc 	andi	r2,r2,2047
 8002d14:	4290b03a 	or	r8,r8,r10
 8002d18:	300c90fa 	slli	r6,r6,3
 8002d1c:	91c07026 	beq	r18,r7,8002ee0 <__adddf3+0x228>
 8002d20:	8087c83a 	sub	r3,r16,r2
 8002d24:	00c0b30e 	bge	zero,r3,8002ff4 <__adddf3+0x33c>
 8002d28:	10002a1e 	bne	r2,zero,8002dd4 <__adddf3+0x11c>
 8002d2c:	4184b03a 	or	r2,r8,r6
 8002d30:	1000991e 	bne	r2,zero,8002f98 <__adddf3+0x2e0>
 8002d34:	888001cc 	andi	r2,r17,7
 8002d38:	10005b26 	beq	r2,zero,8002ea8 <__adddf3+0x1f0>
 8002d3c:	88c003cc 	andi	r3,r17,15
 8002d40:	00800104 	movi	r2,4
 8002d44:	18805826 	beq	r3,r2,8002ea8 <__adddf3+0x1f0>
 8002d48:	89800104 	addi	r6,r17,4
 8002d4c:	3463803a 	cmpltu	r17,r6,r17
 8002d50:	2c4b883a 	add	r5,r5,r17
 8002d54:	2880202c 	andhi	r2,r5,128
 8002d58:	9007883a 	mov	r3,r18
 8002d5c:	3023883a 	mov	r17,r6
 8002d60:	10005426 	beq	r2,zero,8002eb4 <__adddf3+0x1fc>
 8002d64:	84000044 	addi	r16,r16,1
 8002d68:	0081ffc4 	movi	r2,2047
 8002d6c:	8080c126 	beq	r16,r2,8003074 <__adddf3+0x3bc>
 8002d70:	013fe034 	movhi	r4,65408
 8002d74:	213fffc4 	addi	r4,r4,-1
 8002d78:	290a703a 	and	r5,r5,r4
 8002d7c:	2804977a 	slli	r2,r5,29
 8002d80:	280a927a 	slli	r5,r5,9
 8002d84:	8822d0fa 	srli	r17,r17,3
 8002d88:	8401ffcc 	andi	r16,r16,2047
 8002d8c:	2808d33a 	srli	r4,r5,12
 8002d90:	1444b03a 	or	r2,r2,r17
 8002d94:	8401ffcc 	andi	r16,r16,2047
 8002d98:	800a953a 	slli	r5,r16,20
 8002d9c:	18c03fcc 	andi	r3,r3,255
 8002da0:	04000434 	movhi	r16,16
 8002da4:	180697fa 	slli	r3,r3,31
 8002da8:	843fffc4 	addi	r16,r16,-1
 8002dac:	2420703a 	and	r16,r4,r16
 8002db0:	8160b03a 	or	r16,r16,r5
 8002db4:	80c6b03a 	or	r3,r16,r3
 8002db8:	dfc00417 	ldw	ra,16(sp)
 8002dbc:	dcc00317 	ldw	r19,12(sp)
 8002dc0:	dc800217 	ldw	r18,8(sp)
 8002dc4:	dc400117 	ldw	r17,4(sp)
 8002dc8:	dc000017 	ldw	r16,0(sp)
 8002dcc:	dec00504 	addi	sp,sp,20
 8002dd0:	f800283a 	ret
 8002dd4:	0081ffc4 	movi	r2,2047
 8002dd8:	80bfd626 	beq	r16,r2,8002d34 <__alt_data_end+0xf8002d34>
 8002ddc:	42002034 	orhi	r8,r8,128
 8002de0:	00800e04 	movi	r2,56
 8002de4:	10c0a616 	blt	r2,r3,8003080 <__adddf3+0x3c8>
 8002de8:	008007c4 	movi	r2,31
 8002dec:	10c0c916 	blt	r2,r3,8003114 <__adddf3+0x45c>
 8002df0:	00800804 	movi	r2,32
 8002df4:	10c5c83a 	sub	r2,r2,r3
 8002df8:	408e983a 	sll	r7,r8,r2
 8002dfc:	30c8d83a 	srl	r4,r6,r3
 8002e00:	3084983a 	sll	r2,r6,r2
 8002e04:	40c6d83a 	srl	r3,r8,r3
 8002e08:	390cb03a 	or	r6,r7,r4
 8002e0c:	1004c03a 	cmpne	r2,r2,zero
 8002e10:	308cb03a 	or	r6,r6,r2
 8002e14:	898dc83a 	sub	r6,r17,r6
 8002e18:	89a3803a 	cmpltu	r17,r17,r6
 8002e1c:	28cbc83a 	sub	r5,r5,r3
 8002e20:	2c4bc83a 	sub	r5,r5,r17
 8002e24:	3023883a 	mov	r17,r6
 8002e28:	2880202c 	andhi	r2,r5,128
 8002e2c:	10006d26 	beq	r2,zero,8002fe4 <__adddf3+0x32c>
 8002e30:	04c02034 	movhi	r19,128
 8002e34:	9cffffc4 	addi	r19,r19,-1
 8002e38:	2ce6703a 	and	r19,r5,r19
 8002e3c:	98007e26 	beq	r19,zero,8003038 <__adddf3+0x380>
 8002e40:	9809883a 	mov	r4,r19
 8002e44:	800512c0 	call	800512c <__clzsi2>
 8002e48:	10fffe04 	addi	r3,r2,-8
 8002e4c:	010007c4 	movi	r4,31
 8002e50:	20c07f16 	blt	r4,r3,8003050 <__adddf3+0x398>
 8002e54:	01400a04 	movi	r5,40
 8002e58:	2885c83a 	sub	r2,r5,r2
 8002e5c:	888ad83a 	srl	r5,r17,r2
 8002e60:	98e6983a 	sll	r19,r19,r3
 8002e64:	88e2983a 	sll	r17,r17,r3
 8002e68:	2ce6b03a 	or	r19,r5,r19
 8002e6c:	1c007c16 	blt	r3,r16,8003060 <__adddf3+0x3a8>
 8002e70:	1c21c83a 	sub	r16,r3,r16
 8002e74:	81400044 	addi	r5,r16,1
 8002e78:	00c007c4 	movi	r3,31
 8002e7c:	19409816 	blt	r3,r5,80030e0 <__adddf3+0x428>
 8002e80:	1c21c83a 	sub	r16,r3,r16
 8002e84:	8c08983a 	sll	r4,r17,r16
 8002e88:	8946d83a 	srl	r3,r17,r5
 8002e8c:	9c20983a 	sll	r16,r19,r16
 8002e90:	2008c03a 	cmpne	r4,r4,zero
 8002e94:	994ad83a 	srl	r5,r19,r5
 8002e98:	1c06b03a 	or	r3,r3,r16
 8002e9c:	1922b03a 	or	r17,r3,r4
 8002ea0:	0021883a 	mov	r16,zero
 8002ea4:	003fa306 	br	8002d34 <__alt_data_end+0xf8002d34>
 8002ea8:	2880202c 	andhi	r2,r5,128
 8002eac:	9007883a 	mov	r3,r18
 8002eb0:	103fac1e 	bne	r2,zero,8002d64 <__alt_data_end+0xf8002d64>
 8002eb4:	2804977a 	slli	r2,r5,29
 8002eb8:	8822d0fa 	srli	r17,r17,3
 8002ebc:	0101ffc4 	movi	r4,2047
 8002ec0:	280ad0fa 	srli	r5,r5,3
 8002ec4:	1444b03a 	or	r2,r2,r17
 8002ec8:	81002c26 	beq	r16,r4,8002f7c <__adddf3+0x2c4>
 8002ecc:	8120703a 	and	r16,r16,r4
 8002ed0:	01000434 	movhi	r4,16
 8002ed4:	213fffc4 	addi	r4,r4,-1
 8002ed8:	2908703a 	and	r4,r5,r4
 8002edc:	003fad06 	br	8002d94 <__alt_data_end+0xf8002d94>
 8002ee0:	8089c83a 	sub	r4,r16,r2
 8002ee4:	01006a0e 	bge	zero,r4,8003090 <__adddf3+0x3d8>
 8002ee8:	10003326 	beq	r2,zero,8002fb8 <__adddf3+0x300>
 8002eec:	0081ffc4 	movi	r2,2047
 8002ef0:	80bf9026 	beq	r16,r2,8002d34 <__alt_data_end+0xf8002d34>
 8002ef4:	42002034 	orhi	r8,r8,128
 8002ef8:	00800e04 	movi	r2,56
 8002efc:	1100b116 	blt	r2,r4,80031c4 <__adddf3+0x50c>
 8002f00:	008007c4 	movi	r2,31
 8002f04:	1100e216 	blt	r2,r4,8003290 <__adddf3+0x5d8>
 8002f08:	00800804 	movi	r2,32
 8002f0c:	1105c83a 	sub	r2,r2,r4
 8002f10:	4092983a 	sll	r9,r8,r2
 8002f14:	310ed83a 	srl	r7,r6,r4
 8002f18:	3084983a 	sll	r2,r6,r2
 8002f1c:	4110d83a 	srl	r8,r8,r4
 8002f20:	49ccb03a 	or	r6,r9,r7
 8002f24:	1004c03a 	cmpne	r2,r2,zero
 8002f28:	308cb03a 	or	r6,r6,r2
 8002f2c:	344d883a 	add	r6,r6,r17
 8002f30:	3463803a 	cmpltu	r17,r6,r17
 8002f34:	414b883a 	add	r5,r8,r5
 8002f38:	2c4b883a 	add	r5,r5,r17
 8002f3c:	3023883a 	mov	r17,r6
 8002f40:	2880202c 	andhi	r2,r5,128
 8002f44:	10002726 	beq	r2,zero,8002fe4 <__adddf3+0x32c>
 8002f48:	84000044 	addi	r16,r16,1
 8002f4c:	0081ffc4 	movi	r2,2047
 8002f50:	8080ae26 	beq	r16,r2,800320c <__adddf3+0x554>
 8002f54:	00bfe034 	movhi	r2,65408
 8002f58:	10bfffc4 	addi	r2,r2,-1
 8002f5c:	288a703a 	and	r5,r5,r2
 8002f60:	880cd07a 	srli	r6,r17,1
 8002f64:	280897fa 	slli	r4,r5,31
 8002f68:	88c0004c 	andi	r3,r17,1
 8002f6c:	30e2b03a 	or	r17,r6,r3
 8002f70:	280ad07a 	srli	r5,r5,1
 8002f74:	8922b03a 	or	r17,r17,r4
 8002f78:	003f6e06 	br	8002d34 <__alt_data_end+0xf8002d34>
 8002f7c:	1148b03a 	or	r4,r2,r5
 8002f80:	20003c26 	beq	r4,zero,8003074 <__adddf3+0x3bc>
 8002f84:	29000234 	orhi	r4,r5,8
 8002f88:	01400434 	movhi	r5,16
 8002f8c:	297fffc4 	addi	r5,r5,-1
 8002f90:	2148703a 	and	r4,r4,r5
 8002f94:	003f7f06 	br	8002d94 <__alt_data_end+0xf8002d94>
 8002f98:	18ffffc4 	addi	r3,r3,-1
 8002f9c:	18004d1e 	bne	r3,zero,80030d4 <__adddf3+0x41c>
 8002fa0:	898dc83a 	sub	r6,r17,r6
 8002fa4:	89a3803a 	cmpltu	r17,r17,r6
 8002fa8:	2a0bc83a 	sub	r5,r5,r8
 8002fac:	2c4bc83a 	sub	r5,r5,r17
 8002fb0:	3023883a 	mov	r17,r6
 8002fb4:	003f9c06 	br	8002e28 <__alt_data_end+0xf8002e28>
 8002fb8:	4184b03a 	or	r2,r8,r6
 8002fbc:	103f5d26 	beq	r2,zero,8002d34 <__alt_data_end+0xf8002d34>
 8002fc0:	213fffc4 	addi	r4,r4,-1
 8002fc4:	203fd926 	beq	r4,zero,8002f2c <__alt_data_end+0xf8002f2c>
 8002fc8:	0081ffc4 	movi	r2,2047
 8002fcc:	80bfca1e 	bne	r16,r2,8002ef8 <__alt_data_end+0xf8002ef8>
 8002fd0:	003f5806 	br	8002d34 <__alt_data_end+0xf8002d34>
 8002fd4:	10c8b03a 	or	r4,r2,r3
 8002fd8:	20008b26 	beq	r4,zero,8003208 <__adddf3+0x550>
 8002fdc:	100b883a 	mov	r5,r2
 8002fe0:	1823883a 	mov	r17,r3
 8002fe4:	888001cc 	andi	r2,r17,7
 8002fe8:	103f541e 	bne	r2,zero,8002d3c <__alt_data_end+0xf8002d3c>
 8002fec:	9007883a 	mov	r3,r18
 8002ff0:	003fb006 	br	8002eb4 <__alt_data_end+0xf8002eb4>
 8002ff4:	1800531e 	bne	r3,zero,8003144 <__adddf3+0x48c>
 8002ff8:	80800044 	addi	r2,r16,1
 8002ffc:	1081ffcc 	andi	r2,r2,2047
 8003000:	00c00044 	movi	r3,1
 8003004:	1880990e 	bge	r3,r2,800326c <__adddf3+0x5b4>
 8003008:	8985c83a 	sub	r2,r17,r6
 800300c:	8887803a 	cmpltu	r3,r17,r2
 8003010:	2a27c83a 	sub	r19,r5,r8
 8003014:	98e7c83a 	sub	r19,r19,r3
 8003018:	98c0202c 	andhi	r3,r19,128
 800301c:	18006226 	beq	r3,zero,80031a8 <__adddf3+0x4f0>
 8003020:	3463c83a 	sub	r17,r6,r17
 8003024:	4151c83a 	sub	r8,r8,r5
 8003028:	344d803a 	cmpltu	r6,r6,r17
 800302c:	41a7c83a 	sub	r19,r8,r6
 8003030:	3825883a 	mov	r18,r7
 8003034:	983f821e 	bne	r19,zero,8002e40 <__alt_data_end+0xf8002e40>
 8003038:	8809883a 	mov	r4,r17
 800303c:	800512c0 	call	800512c <__clzsi2>
 8003040:	10800804 	addi	r2,r2,32
 8003044:	10fffe04 	addi	r3,r2,-8
 8003048:	010007c4 	movi	r4,31
 800304c:	20ff810e 	bge	r4,r3,8002e54 <__alt_data_end+0xf8002e54>
 8003050:	14fff604 	addi	r19,r2,-40
 8003054:	8ce6983a 	sll	r19,r17,r19
 8003058:	0023883a 	mov	r17,zero
 800305c:	1c3f840e 	bge	r3,r16,8002e70 <__alt_data_end+0xf8002e70>
 8003060:	017fe034 	movhi	r5,65408
 8003064:	297fffc4 	addi	r5,r5,-1
 8003068:	80e1c83a 	sub	r16,r16,r3
 800306c:	994a703a 	and	r5,r19,r5
 8003070:	003f3006 	br	8002d34 <__alt_data_end+0xf8002d34>
 8003074:	0009883a 	mov	r4,zero
 8003078:	0005883a 	mov	r2,zero
 800307c:	003f4506 	br	8002d94 <__alt_data_end+0xf8002d94>
 8003080:	418cb03a 	or	r6,r8,r6
 8003084:	300cc03a 	cmpne	r6,r6,zero
 8003088:	0007883a 	mov	r3,zero
 800308c:	003f6106 	br	8002e14 <__alt_data_end+0xf8002e14>
 8003090:	2000921e 	bne	r4,zero,80032dc <__adddf3+0x624>
 8003094:	80800044 	addi	r2,r16,1
 8003098:	11c1ffcc 	andi	r7,r2,2047
 800309c:	01000044 	movi	r4,1
 80030a0:	21c0610e 	bge	r4,r7,8003228 <__adddf3+0x570>
 80030a4:	0101ffc4 	movi	r4,2047
 80030a8:	1100a326 	beq	r2,r4,8003338 <__adddf3+0x680>
 80030ac:	344d883a 	add	r6,r6,r17
 80030b0:	3463803a 	cmpltu	r17,r6,r17
 80030b4:	414b883a 	add	r5,r8,r5
 80030b8:	2c4b883a 	add	r5,r5,r17
 80030bc:	282297fa 	slli	r17,r5,31
 80030c0:	300cd07a 	srli	r6,r6,1
 80030c4:	280ad07a 	srli	r5,r5,1
 80030c8:	1021883a 	mov	r16,r2
 80030cc:	89a2b03a 	or	r17,r17,r6
 80030d0:	003f1806 	br	8002d34 <__alt_data_end+0xf8002d34>
 80030d4:	0081ffc4 	movi	r2,2047
 80030d8:	80bf411e 	bne	r16,r2,8002de0 <__alt_data_end+0xf8002de0>
 80030dc:	003f1506 	br	8002d34 <__alt_data_end+0xf8002d34>
 80030e0:	80bff844 	addi	r2,r16,-31
 80030e4:	00c00804 	movi	r3,32
 80030e8:	9884d83a 	srl	r2,r19,r2
 80030ec:	28c04a26 	beq	r5,r3,8003218 <__adddf3+0x560>
 80030f0:	00c00fc4 	movi	r3,63
 80030f4:	1c21c83a 	sub	r16,r3,r16
 80030f8:	9c26983a 	sll	r19,r19,r16
 80030fc:	9c62b03a 	or	r17,r19,r17
 8003100:	8822c03a 	cmpne	r17,r17,zero
 8003104:	88a2b03a 	or	r17,r17,r2
 8003108:	000b883a 	mov	r5,zero
 800310c:	0021883a 	mov	r16,zero
 8003110:	003fb406 	br	8002fe4 <__alt_data_end+0xf8002fe4>
 8003114:	18bff804 	addi	r2,r3,-32
 8003118:	01000804 	movi	r4,32
 800311c:	4084d83a 	srl	r2,r8,r2
 8003120:	19003f26 	beq	r3,r4,8003220 <__adddf3+0x568>
 8003124:	01001004 	movi	r4,64
 8003128:	20c7c83a 	sub	r3,r4,r3
 800312c:	40d0983a 	sll	r8,r8,r3
 8003130:	418cb03a 	or	r6,r8,r6
 8003134:	300cc03a 	cmpne	r6,r6,zero
 8003138:	308cb03a 	or	r6,r6,r2
 800313c:	0007883a 	mov	r3,zero
 8003140:	003f3406 	br	8002e14 <__alt_data_end+0xf8002e14>
 8003144:	80002326 	beq	r16,zero,80031d4 <__adddf3+0x51c>
 8003148:	0101ffc4 	movi	r4,2047
 800314c:	11005e26 	beq	r2,r4,80032c8 <__adddf3+0x610>
 8003150:	00c7c83a 	sub	r3,zero,r3
 8003154:	29402034 	orhi	r5,r5,128
 8003158:	01000e04 	movi	r4,56
 800315c:	20c07216 	blt	r4,r3,8003328 <__adddf3+0x670>
 8003160:	010007c4 	movi	r4,31
 8003164:	20c0ce16 	blt	r4,r3,80034a0 <__adddf3+0x7e8>
 8003168:	01000804 	movi	r4,32
 800316c:	20c9c83a 	sub	r4,r4,r3
 8003170:	2914983a 	sll	r10,r5,r4
 8003174:	88d2d83a 	srl	r9,r17,r3
 8003178:	8908983a 	sll	r4,r17,r4
 800317c:	28c6d83a 	srl	r3,r5,r3
 8003180:	5262b03a 	or	r17,r10,r9
 8003184:	2008c03a 	cmpne	r4,r4,zero
 8003188:	8922b03a 	or	r17,r17,r4
 800318c:	3463c83a 	sub	r17,r6,r17
 8003190:	40c7c83a 	sub	r3,r8,r3
 8003194:	344d803a 	cmpltu	r6,r6,r17
 8003198:	198bc83a 	sub	r5,r3,r6
 800319c:	1021883a 	mov	r16,r2
 80031a0:	3825883a 	mov	r18,r7
 80031a4:	003f2006 	br	8002e28 <__alt_data_end+0xf8002e28>
 80031a8:	9886b03a 	or	r3,r19,r2
 80031ac:	1800141e 	bne	r3,zero,8003200 <__adddf3+0x548>
 80031b0:	0007883a 	mov	r3,zero
 80031b4:	000b883a 	mov	r5,zero
 80031b8:	0023883a 	mov	r17,zero
 80031bc:	0021883a 	mov	r16,zero
 80031c0:	003f3c06 	br	8002eb4 <__alt_data_end+0xf8002eb4>
 80031c4:	418cb03a 	or	r6,r8,r6
 80031c8:	300cc03a 	cmpne	r6,r6,zero
 80031cc:	0011883a 	mov	r8,zero
 80031d0:	003f5606 	br	8002f2c <__alt_data_end+0xf8002f2c>
 80031d4:	2c48b03a 	or	r4,r5,r17
 80031d8:	20003b26 	beq	r4,zero,80032c8 <__adddf3+0x610>
 80031dc:	00c6303a 	nor	r3,zero,r3
 80031e0:	1800371e 	bne	r3,zero,80032c0 <__adddf3+0x608>
 80031e4:	3463c83a 	sub	r17,r6,r17
 80031e8:	414bc83a 	sub	r5,r8,r5
 80031ec:	344d803a 	cmpltu	r6,r6,r17
 80031f0:	298bc83a 	sub	r5,r5,r6
 80031f4:	1021883a 	mov	r16,r2
 80031f8:	3825883a 	mov	r18,r7
 80031fc:	003f0a06 	br	8002e28 <__alt_data_end+0xf8002e28>
 8003200:	1023883a 	mov	r17,r2
 8003204:	003f0d06 	br	8002e3c <__alt_data_end+0xf8002e3c>
 8003208:	0007883a 	mov	r3,zero
 800320c:	000b883a 	mov	r5,zero
 8003210:	0023883a 	mov	r17,zero
 8003214:	003f2706 	br	8002eb4 <__alt_data_end+0xf8002eb4>
 8003218:	0027883a 	mov	r19,zero
 800321c:	003fb706 	br	80030fc <__alt_data_end+0xf80030fc>
 8003220:	0011883a 	mov	r8,zero
 8003224:	003fc206 	br	8003130 <__alt_data_end+0xf8003130>
 8003228:	2c44b03a 	or	r2,r5,r17
 800322c:	8000871e 	bne	r16,zero,800344c <__adddf3+0x794>
 8003230:	1000b126 	beq	r2,zero,80034f8 <__adddf3+0x840>
 8003234:	4184b03a 	or	r2,r8,r6
 8003238:	103ebe26 	beq	r2,zero,8002d34 <__alt_data_end+0xf8002d34>
 800323c:	3445883a 	add	r2,r6,r17
 8003240:	1463803a 	cmpltu	r17,r2,r17
 8003244:	414b883a 	add	r5,r8,r5
 8003248:	2c4b883a 	add	r5,r5,r17
 800324c:	28c0202c 	andhi	r3,r5,128
 8003250:	1023883a 	mov	r17,r2
 8003254:	183f6326 	beq	r3,zero,8002fe4 <__alt_data_end+0xf8002fe4>
 8003258:	00bfe034 	movhi	r2,65408
 800325c:	10bfffc4 	addi	r2,r2,-1
 8003260:	2021883a 	mov	r16,r4
 8003264:	288a703a 	and	r5,r5,r2
 8003268:	003eb206 	br	8002d34 <__alt_data_end+0xf8002d34>
 800326c:	2c44b03a 	or	r2,r5,r17
 8003270:	8000251e 	bne	r16,zero,8003308 <__adddf3+0x650>
 8003274:	10004b1e 	bne	r2,zero,80033a4 <__adddf3+0x6ec>
 8003278:	4184b03a 	or	r2,r8,r6
 800327c:	103fe226 	beq	r2,zero,8003208 <__alt_data_end+0xf8003208>
 8003280:	400b883a 	mov	r5,r8
 8003284:	3023883a 	mov	r17,r6
 8003288:	3825883a 	mov	r18,r7
 800328c:	003ea906 	br	8002d34 <__alt_data_end+0xf8002d34>
 8003290:	20bff804 	addi	r2,r4,-32
 8003294:	01c00804 	movi	r7,32
 8003298:	4084d83a 	srl	r2,r8,r2
 800329c:	21c07e26 	beq	r4,r7,8003498 <__adddf3+0x7e0>
 80032a0:	01c01004 	movi	r7,64
 80032a4:	3909c83a 	sub	r4,r7,r4
 80032a8:	4110983a 	sll	r8,r8,r4
 80032ac:	418cb03a 	or	r6,r8,r6
 80032b0:	300cc03a 	cmpne	r6,r6,zero
 80032b4:	308cb03a 	or	r6,r6,r2
 80032b8:	0011883a 	mov	r8,zero
 80032bc:	003f1b06 	br	8002f2c <__alt_data_end+0xf8002f2c>
 80032c0:	0101ffc4 	movi	r4,2047
 80032c4:	113fa41e 	bne	r2,r4,8003158 <__alt_data_end+0xf8003158>
 80032c8:	400b883a 	mov	r5,r8
 80032cc:	3023883a 	mov	r17,r6
 80032d0:	1021883a 	mov	r16,r2
 80032d4:	3825883a 	mov	r18,r7
 80032d8:	003e9606 	br	8002d34 <__alt_data_end+0xf8002d34>
 80032dc:	80001a1e 	bne	r16,zero,8003348 <__adddf3+0x690>
 80032e0:	2c4eb03a 	or	r7,r5,r17
 80032e4:	38005526 	beq	r7,zero,800343c <__adddf3+0x784>
 80032e8:	0108303a 	nor	r4,zero,r4
 80032ec:	2000511e 	bne	r4,zero,8003434 <__adddf3+0x77c>
 80032f0:	89a3883a 	add	r17,r17,r6
 80032f4:	414b883a 	add	r5,r8,r5
 80032f8:	898d803a 	cmpltu	r6,r17,r6
 80032fc:	298b883a 	add	r5,r5,r6
 8003300:	1021883a 	mov	r16,r2
 8003304:	003f0e06 	br	8002f40 <__alt_data_end+0xf8002f40>
 8003308:	1000341e 	bne	r2,zero,80033dc <__adddf3+0x724>
 800330c:	4184b03a 	or	r2,r8,r6
 8003310:	10006f26 	beq	r2,zero,80034d0 <__adddf3+0x818>
 8003314:	400b883a 	mov	r5,r8
 8003318:	3023883a 	mov	r17,r6
 800331c:	3825883a 	mov	r18,r7
 8003320:	0401ffc4 	movi	r16,2047
 8003324:	003e8306 	br	8002d34 <__alt_data_end+0xf8002d34>
 8003328:	2c62b03a 	or	r17,r5,r17
 800332c:	8822c03a 	cmpne	r17,r17,zero
 8003330:	0007883a 	mov	r3,zero
 8003334:	003f9506 	br	800318c <__alt_data_end+0xf800318c>
 8003338:	1021883a 	mov	r16,r2
 800333c:	000b883a 	mov	r5,zero
 8003340:	0023883a 	mov	r17,zero
 8003344:	003edb06 	br	8002eb4 <__alt_data_end+0xf8002eb4>
 8003348:	01c1ffc4 	movi	r7,2047
 800334c:	11c03b26 	beq	r2,r7,800343c <__adddf3+0x784>
 8003350:	0109c83a 	sub	r4,zero,r4
 8003354:	29402034 	orhi	r5,r5,128
 8003358:	01c00e04 	movi	r7,56
 800335c:	39006216 	blt	r7,r4,80034e8 <__adddf3+0x830>
 8003360:	01c007c4 	movi	r7,31
 8003364:	39006b16 	blt	r7,r4,8003514 <__adddf3+0x85c>
 8003368:	01c00804 	movi	r7,32
 800336c:	390fc83a 	sub	r7,r7,r4
 8003370:	29d4983a 	sll	r10,r5,r7
 8003374:	8912d83a 	srl	r9,r17,r4
 8003378:	89ce983a 	sll	r7,r17,r7
 800337c:	2908d83a 	srl	r4,r5,r4
 8003380:	5262b03a 	or	r17,r10,r9
 8003384:	380ac03a 	cmpne	r5,r7,zero
 8003388:	8962b03a 	or	r17,r17,r5
 800338c:	89a3883a 	add	r17,r17,r6
 8003390:	2211883a 	add	r8,r4,r8
 8003394:	898d803a 	cmpltu	r6,r17,r6
 8003398:	418b883a 	add	r5,r8,r6
 800339c:	1021883a 	mov	r16,r2
 80033a0:	003ee706 	br	8002f40 <__alt_data_end+0xf8002f40>
 80033a4:	4184b03a 	or	r2,r8,r6
 80033a8:	103e6226 	beq	r2,zero,8002d34 <__alt_data_end+0xf8002d34>
 80033ac:	8987c83a 	sub	r3,r17,r6
 80033b0:	88c9803a 	cmpltu	r4,r17,r3
 80033b4:	2a05c83a 	sub	r2,r5,r8
 80033b8:	1105c83a 	sub	r2,r2,r4
 80033bc:	1100202c 	andhi	r4,r2,128
 80033c0:	203f0426 	beq	r4,zero,8002fd4 <__alt_data_end+0xf8002fd4>
 80033c4:	3463c83a 	sub	r17,r6,r17
 80033c8:	414bc83a 	sub	r5,r8,r5
 80033cc:	344d803a 	cmpltu	r6,r6,r17
 80033d0:	298bc83a 	sub	r5,r5,r6
 80033d4:	3825883a 	mov	r18,r7
 80033d8:	003e5606 	br	8002d34 <__alt_data_end+0xf8002d34>
 80033dc:	4184b03a 	or	r2,r8,r6
 80033e0:	10002b26 	beq	r2,zero,8003490 <__adddf3+0x7d8>
 80033e4:	2804d0fa 	srli	r2,r5,3
 80033e8:	8822d0fa 	srli	r17,r17,3
 80033ec:	280a977a 	slli	r5,r5,29
 80033f0:	10c0022c 	andhi	r3,r2,8
 80033f4:	2c62b03a 	or	r17,r5,r17
 80033f8:	18000826 	beq	r3,zero,800341c <__adddf3+0x764>
 80033fc:	4008d0fa 	srli	r4,r8,3
 8003400:	20c0022c 	andhi	r3,r4,8
 8003404:	1800051e 	bne	r3,zero,800341c <__adddf3+0x764>
 8003408:	300cd0fa 	srli	r6,r6,3
 800340c:	4010977a 	slli	r8,r8,29
 8003410:	2005883a 	mov	r2,r4
 8003414:	3825883a 	mov	r18,r7
 8003418:	41a2b03a 	or	r17,r8,r6
 800341c:	880ad77a 	srli	r5,r17,29
 8003420:	100490fa 	slli	r2,r2,3
 8003424:	882290fa 	slli	r17,r17,3
 8003428:	0401ffc4 	movi	r16,2047
 800342c:	288ab03a 	or	r5,r5,r2
 8003430:	003e4006 	br	8002d34 <__alt_data_end+0xf8002d34>
 8003434:	01c1ffc4 	movi	r7,2047
 8003438:	11ffc71e 	bne	r2,r7,8003358 <__alt_data_end+0xf8003358>
 800343c:	400b883a 	mov	r5,r8
 8003440:	3023883a 	mov	r17,r6
 8003444:	1021883a 	mov	r16,r2
 8003448:	003e3a06 	br	8002d34 <__alt_data_end+0xf8002d34>
 800344c:	10002d26 	beq	r2,zero,8003504 <__adddf3+0x84c>
 8003450:	4184b03a 	or	r2,r8,r6
 8003454:	10000e26 	beq	r2,zero,8003490 <__adddf3+0x7d8>
 8003458:	2804d0fa 	srli	r2,r5,3
 800345c:	8822d0fa 	srli	r17,r17,3
 8003460:	280a977a 	slli	r5,r5,29
 8003464:	10c0022c 	andhi	r3,r2,8
 8003468:	2c62b03a 	or	r17,r5,r17
 800346c:	183feb26 	beq	r3,zero,800341c <__alt_data_end+0xf800341c>
 8003470:	4008d0fa 	srli	r4,r8,3
 8003474:	20c0022c 	andhi	r3,r4,8
 8003478:	183fe81e 	bne	r3,zero,800341c <__alt_data_end+0xf800341c>
 800347c:	300cd0fa 	srli	r6,r6,3
 8003480:	4010977a 	slli	r8,r8,29
 8003484:	2005883a 	mov	r2,r4
 8003488:	41a2b03a 	or	r17,r8,r6
 800348c:	003fe306 	br	800341c <__alt_data_end+0xf800341c>
 8003490:	0401ffc4 	movi	r16,2047
 8003494:	003e2706 	br	8002d34 <__alt_data_end+0xf8002d34>
 8003498:	0011883a 	mov	r8,zero
 800349c:	003f8306 	br	80032ac <__alt_data_end+0xf80032ac>
 80034a0:	193ff804 	addi	r4,r3,-32
 80034a4:	02400804 	movi	r9,32
 80034a8:	2908d83a 	srl	r4,r5,r4
 80034ac:	1a402526 	beq	r3,r9,8003544 <__adddf3+0x88c>
 80034b0:	02401004 	movi	r9,64
 80034b4:	48c7c83a 	sub	r3,r9,r3
 80034b8:	28ca983a 	sll	r5,r5,r3
 80034bc:	2c62b03a 	or	r17,r5,r17
 80034c0:	8822c03a 	cmpne	r17,r17,zero
 80034c4:	8922b03a 	or	r17,r17,r4
 80034c8:	0007883a 	mov	r3,zero
 80034cc:	003f2f06 	br	800318c <__alt_data_end+0xf800318c>
 80034d0:	01402034 	movhi	r5,128
 80034d4:	0007883a 	mov	r3,zero
 80034d8:	297fffc4 	addi	r5,r5,-1
 80034dc:	047ffe04 	movi	r17,-8
 80034e0:	0401ffc4 	movi	r16,2047
 80034e4:	003e7306 	br	8002eb4 <__alt_data_end+0xf8002eb4>
 80034e8:	2c62b03a 	or	r17,r5,r17
 80034ec:	8822c03a 	cmpne	r17,r17,zero
 80034f0:	0009883a 	mov	r4,zero
 80034f4:	003fa506 	br	800338c <__alt_data_end+0xf800338c>
 80034f8:	400b883a 	mov	r5,r8
 80034fc:	3023883a 	mov	r17,r6
 8003500:	003e0c06 	br	8002d34 <__alt_data_end+0xf8002d34>
 8003504:	400b883a 	mov	r5,r8
 8003508:	3023883a 	mov	r17,r6
 800350c:	0401ffc4 	movi	r16,2047
 8003510:	003e0806 	br	8002d34 <__alt_data_end+0xf8002d34>
 8003514:	21fff804 	addi	r7,r4,-32
 8003518:	02400804 	movi	r9,32
 800351c:	29ced83a 	srl	r7,r5,r7
 8003520:	22400a26 	beq	r4,r9,800354c <__adddf3+0x894>
 8003524:	02401004 	movi	r9,64
 8003528:	4909c83a 	sub	r4,r9,r4
 800352c:	290a983a 	sll	r5,r5,r4
 8003530:	2c62b03a 	or	r17,r5,r17
 8003534:	8822c03a 	cmpne	r17,r17,zero
 8003538:	89e2b03a 	or	r17,r17,r7
 800353c:	0009883a 	mov	r4,zero
 8003540:	003f9206 	br	800338c <__alt_data_end+0xf800338c>
 8003544:	000b883a 	mov	r5,zero
 8003548:	003fdc06 	br	80034bc <__alt_data_end+0xf80034bc>
 800354c:	000b883a 	mov	r5,zero
 8003550:	003ff706 	br	8003530 <__alt_data_end+0xf8003530>

08003554 <__divdf3>:
 8003554:	defff204 	addi	sp,sp,-56
 8003558:	dd000815 	stw	r20,32(sp)
 800355c:	2828d53a 	srli	r20,r5,20
 8003560:	dd800a15 	stw	r22,40(sp)
 8003564:	282cd7fa 	srli	r22,r5,31
 8003568:	dc000415 	stw	r16,16(sp)
 800356c:	04000434 	movhi	r16,16
 8003570:	df000c15 	stw	fp,48(sp)
 8003574:	dcc00715 	stw	r19,28(sp)
 8003578:	dc800615 	stw	r18,24(sp)
 800357c:	dc400515 	stw	r17,20(sp)
 8003580:	843fffc4 	addi	r16,r16,-1
 8003584:	dfc00d15 	stw	ra,52(sp)
 8003588:	ddc00b15 	stw	r23,44(sp)
 800358c:	dd400915 	stw	r21,36(sp)
 8003590:	a501ffcc 	andi	r20,r20,2047
 8003594:	2025883a 	mov	r18,r4
 8003598:	2027883a 	mov	r19,r4
 800359c:	2c22703a 	and	r17,r5,r16
 80035a0:	b7003fcc 	andi	fp,r22,255
 80035a4:	a0005e26 	beq	r20,zero,8003720 <__divdf3+0x1cc>
 80035a8:	0081ffc4 	movi	r2,2047
 80035ac:	a0803526 	beq	r20,r2,8003684 <__divdf3+0x130>
 80035b0:	8c000434 	orhi	r16,r17,16
 80035b4:	2004d77a 	srli	r2,r4,29
 80035b8:	802090fa 	slli	r16,r16,3
 80035bc:	202690fa 	slli	r19,r4,3
 80035c0:	a53f0044 	addi	r20,r20,-1023
 80035c4:	80a2b03a 	or	r17,r16,r2
 80035c8:	0025883a 	mov	r18,zero
 80035cc:	0011883a 	mov	r8,zero
 80035d0:	380ad53a 	srli	r5,r7,20
 80035d4:	382ed7fa 	srli	r23,r7,31
 80035d8:	04000434 	movhi	r16,16
 80035dc:	843fffc4 	addi	r16,r16,-1
 80035e0:	2941ffcc 	andi	r5,r5,2047
 80035e4:	302b883a 	mov	r21,r6
 80035e8:	3c20703a 	and	r16,r7,r16
 80035ec:	ba403fcc 	andi	r9,r23,255
 80035f0:	28006726 	beq	r5,zero,8003790 <__divdf3+0x23c>
 80035f4:	0081ffc4 	movi	r2,2047
 80035f8:	28805f26 	beq	r5,r2,8003778 <__divdf3+0x224>
 80035fc:	84000434 	orhi	r16,r16,16
 8003600:	3004d77a 	srli	r2,r6,29
 8003604:	802090fa 	slli	r16,r16,3
 8003608:	302a90fa 	slli	r21,r6,3
 800360c:	297f0044 	addi	r5,r5,-1023
 8003610:	80a0b03a 	or	r16,r16,r2
 8003614:	000f883a 	mov	r7,zero
 8003618:	3c86b03a 	or	r3,r7,r18
 800361c:	180690ba 	slli	r3,r3,2
 8003620:	00820034 	movhi	r2,2048
 8003624:	108d9104 	addi	r2,r2,13892
 8003628:	1887883a 	add	r3,r3,r2
 800362c:	18c00017 	ldw	r3,0(r3)
 8003630:	b5c8f03a 	xor	r4,r22,r23
 8003634:	200d883a 	mov	r6,r4
 8003638:	24803fcc 	andi	r18,r4,255
 800363c:	a169c83a 	sub	r20,r20,r5
 8003640:	1800683a 	jmp	r3
 8003644:	0800388c 	andi	zero,at,226
 8003648:	080036bc 	xorhi	zero,at,218
 800364c:	08003850 	cmplti	zero,at,225
 8003650:	080036a0 	cmpeqi	zero,at,218
 8003654:	08003850 	cmplti	zero,at,225
 8003658:	08003824 	muli	zero,at,224
 800365c:	08003850 	cmplti	zero,at,225
 8003660:	080036a0 	cmpeqi	zero,at,218
 8003664:	080036bc 	xorhi	zero,at,218
 8003668:	080036bc 	xorhi	zero,at,218
 800366c:	08003824 	muli	zero,at,224
 8003670:	080036a0 	cmpeqi	zero,at,218
 8003674:	080036b0 	cmpltui	zero,at,218
 8003678:	080036b0 	cmpltui	zero,at,218
 800367c:	080036b0 	cmpltui	zero,at,218
 8003680:	08003860 	cmpeqi	zero,at,225
 8003684:	8904b03a 	or	r2,r17,r4
 8003688:	1000631e 	bne	r2,zero,8003818 <__divdf3+0x2c4>
 800368c:	04800204 	movi	r18,8
 8003690:	0023883a 	mov	r17,zero
 8003694:	0027883a 	mov	r19,zero
 8003698:	02000084 	movi	r8,2
 800369c:	003fcc06 	br	80035d0 <__alt_data_end+0xf80035d0>
 80036a0:	8023883a 	mov	r17,r16
 80036a4:	a827883a 	mov	r19,r21
 80036a8:	4839883a 	mov	fp,r9
 80036ac:	3811883a 	mov	r8,r7
 80036b0:	00800084 	movi	r2,2
 80036b4:	40812a1e 	bne	r8,r2,8003b60 <__divdf3+0x60c>
 80036b8:	e025883a 	mov	r18,fp
 80036bc:	9180004c 	andi	r6,r18,1
 80036c0:	0101ffc4 	movi	r4,2047
 80036c4:	000b883a 	mov	r5,zero
 80036c8:	0027883a 	mov	r19,zero
 80036cc:	2008953a 	slli	r4,r4,20
 80036d0:	30c03fcc 	andi	r3,r6,255
 80036d4:	04000434 	movhi	r16,16
 80036d8:	180697fa 	slli	r3,r3,31
 80036dc:	843fffc4 	addi	r16,r16,-1
 80036e0:	2c20703a 	and	r16,r5,r16
 80036e4:	8120b03a 	or	r16,r16,r4
 80036e8:	80c6b03a 	or	r3,r16,r3
 80036ec:	9805883a 	mov	r2,r19
 80036f0:	dfc00d17 	ldw	ra,52(sp)
 80036f4:	df000c17 	ldw	fp,48(sp)
 80036f8:	ddc00b17 	ldw	r23,44(sp)
 80036fc:	dd800a17 	ldw	r22,40(sp)
 8003700:	dd400917 	ldw	r21,36(sp)
 8003704:	dd000817 	ldw	r20,32(sp)
 8003708:	dcc00717 	ldw	r19,28(sp)
 800370c:	dc800617 	ldw	r18,24(sp)
 8003710:	dc400517 	ldw	r17,20(sp)
 8003714:	dc000417 	ldw	r16,16(sp)
 8003718:	dec00e04 	addi	sp,sp,56
 800371c:	f800283a 	ret
 8003720:	8904b03a 	or	r2,r17,r4
 8003724:	10003726 	beq	r2,zero,8003804 <__divdf3+0x2b0>
 8003728:	88011c26 	beq	r17,zero,8003b9c <__divdf3+0x648>
 800372c:	8809883a 	mov	r4,r17
 8003730:	d9800315 	stw	r6,12(sp)
 8003734:	d9c00115 	stw	r7,4(sp)
 8003738:	800512c0 	call	800512c <__clzsi2>
 800373c:	d9800317 	ldw	r6,12(sp)
 8003740:	d9c00117 	ldw	r7,4(sp)
 8003744:	1007883a 	mov	r3,r2
 8003748:	01000a04 	movi	r4,40
 800374c:	1cfffe04 	addi	r19,r3,-8
 8003750:	20c9c83a 	sub	r4,r4,r3
 8003754:	8cca983a 	sll	r5,r17,r19
 8003758:	9108d83a 	srl	r4,r18,r4
 800375c:	94e6983a 	sll	r19,r18,r19
 8003760:	2162b03a 	or	r17,r4,r5
 8003764:	053f0344 	movi	r20,-1011
 8003768:	a0e9c83a 	sub	r20,r20,r3
 800376c:	0025883a 	mov	r18,zero
 8003770:	0011883a 	mov	r8,zero
 8003774:	003f9606 	br	80035d0 <__alt_data_end+0xf80035d0>
 8003778:	8184b03a 	or	r2,r16,r6
 800377c:	10001f1e 	bne	r2,zero,80037fc <__divdf3+0x2a8>
 8003780:	0021883a 	mov	r16,zero
 8003784:	002b883a 	mov	r21,zero
 8003788:	01c00084 	movi	r7,2
 800378c:	003fa206 	br	8003618 <__alt_data_end+0xf8003618>
 8003790:	8184b03a 	or	r2,r16,r6
 8003794:	10001526 	beq	r2,zero,80037ec <__divdf3+0x298>
 8003798:	80010c26 	beq	r16,zero,8003bcc <__divdf3+0x678>
 800379c:	8009883a 	mov	r4,r16
 80037a0:	d9800315 	stw	r6,12(sp)
 80037a4:	da000215 	stw	r8,8(sp)
 80037a8:	da400015 	stw	r9,0(sp)
 80037ac:	800512c0 	call	800512c <__clzsi2>
 80037b0:	d9800317 	ldw	r6,12(sp)
 80037b4:	da000217 	ldw	r8,8(sp)
 80037b8:	da400017 	ldw	r9,0(sp)
 80037bc:	1007883a 	mov	r3,r2
 80037c0:	01000a04 	movi	r4,40
 80037c4:	1d7ffe04 	addi	r21,r3,-8
 80037c8:	20c9c83a 	sub	r4,r4,r3
 80037cc:	8560983a 	sll	r16,r16,r21
 80037d0:	3108d83a 	srl	r4,r6,r4
 80037d4:	356a983a 	sll	r21,r6,r21
 80037d8:	2420b03a 	or	r16,r4,r16
 80037dc:	017f0344 	movi	r5,-1011
 80037e0:	28cbc83a 	sub	r5,r5,r3
 80037e4:	000f883a 	mov	r7,zero
 80037e8:	003f8b06 	br	8003618 <__alt_data_end+0xf8003618>
 80037ec:	0021883a 	mov	r16,zero
 80037f0:	002b883a 	mov	r21,zero
 80037f4:	01c00044 	movi	r7,1
 80037f8:	003f8706 	br	8003618 <__alt_data_end+0xf8003618>
 80037fc:	01c000c4 	movi	r7,3
 8003800:	003f8506 	br	8003618 <__alt_data_end+0xf8003618>
 8003804:	04800104 	movi	r18,4
 8003808:	0023883a 	mov	r17,zero
 800380c:	0027883a 	mov	r19,zero
 8003810:	02000044 	movi	r8,1
 8003814:	003f6e06 	br	80035d0 <__alt_data_end+0xf80035d0>
 8003818:	04800304 	movi	r18,12
 800381c:	020000c4 	movi	r8,3
 8003820:	003f6b06 	br	80035d0 <__alt_data_end+0xf80035d0>
 8003824:	01400434 	movhi	r5,16
 8003828:	000d883a 	mov	r6,zero
 800382c:	297fffc4 	addi	r5,r5,-1
 8003830:	04ffffc4 	movi	r19,-1
 8003834:	0101ffc4 	movi	r4,2047
 8003838:	003fa406 	br	80036cc <__alt_data_end+0xf80036cc>
 800383c:	043f0084 	movi	r16,-1022
 8003840:	8521c83a 	sub	r16,r16,r20
 8003844:	00800e04 	movi	r2,56
 8003848:	1401200e 	bge	r2,r16,8003ccc <__divdf3+0x778>
 800384c:	9180004c 	andi	r6,r18,1
 8003850:	0009883a 	mov	r4,zero
 8003854:	000b883a 	mov	r5,zero
 8003858:	0027883a 	mov	r19,zero
 800385c:	003f9b06 	br	80036cc <__alt_data_end+0xf80036cc>
 8003860:	8880022c 	andhi	r2,r17,8
 8003864:	1000c726 	beq	r2,zero,8003b84 <__divdf3+0x630>
 8003868:	8080022c 	andhi	r2,r16,8
 800386c:	1000c51e 	bne	r2,zero,8003b84 <__divdf3+0x630>
 8003870:	00800434 	movhi	r2,16
 8003874:	81400234 	orhi	r5,r16,8
 8003878:	10bfffc4 	addi	r2,r2,-1
 800387c:	b80d883a 	mov	r6,r23
 8003880:	288a703a 	and	r5,r5,r2
 8003884:	a827883a 	mov	r19,r21
 8003888:	003fea06 	br	8003834 <__alt_data_end+0xf8003834>
 800388c:	8440ea36 	bltu	r16,r17,8003c38 <__divdf3+0x6e4>
 8003890:	8c00e826 	beq	r17,r16,8003c34 <__divdf3+0x6e0>
 8003894:	a53fffc4 	addi	r20,r20,-1
 8003898:	882d883a 	mov	r22,r17
 800389c:	000d883a 	mov	r6,zero
 80038a0:	a804d63a 	srli	r2,r21,24
 80038a4:	8020923a 	slli	r16,r16,8
 80038a8:	b009883a 	mov	r4,r22
 80038ac:	d9800315 	stw	r6,12(sp)
 80038b0:	1420b03a 	or	r16,r2,r16
 80038b4:	802ed43a 	srli	r23,r16,16
 80038b8:	873fffcc 	andi	fp,r16,65535
 80038bc:	a82a923a 	slli	r21,r21,8
 80038c0:	b80b883a 	mov	r5,r23
 80038c4:	8002ca80 	call	8002ca8 <__udivsi3>
 80038c8:	b009883a 	mov	r4,r22
 80038cc:	b80b883a 	mov	r5,r23
 80038d0:	1023883a 	mov	r17,r2
 80038d4:	8002cb00 	call	8002cb0 <__umodsi3>
 80038d8:	1004943a 	slli	r2,r2,16
 80038dc:	9808d43a 	srli	r4,r19,16
 80038e0:	8f2d383a 	mul	r22,r17,fp
 80038e4:	d9800317 	ldw	r6,12(sp)
 80038e8:	1106b03a 	or	r3,r2,r4
 80038ec:	1d80062e 	bgeu	r3,r22,8003908 <__divdf3+0x3b4>
 80038f0:	1c07883a 	add	r3,r3,r16
 80038f4:	88bfffc4 	addi	r2,r17,-1
 80038f8:	1c00dc36 	bltu	r3,r16,8003c6c <__divdf3+0x718>
 80038fc:	1d80db2e 	bgeu	r3,r22,8003c6c <__divdf3+0x718>
 8003900:	8c7fff84 	addi	r17,r17,-2
 8003904:	1c07883a 	add	r3,r3,r16
 8003908:	1dadc83a 	sub	r22,r3,r22
 800390c:	b009883a 	mov	r4,r22
 8003910:	b80b883a 	mov	r5,r23
 8003914:	d9800315 	stw	r6,12(sp)
 8003918:	8002ca80 	call	8002ca8 <__udivsi3>
 800391c:	b009883a 	mov	r4,r22
 8003920:	b80b883a 	mov	r5,r23
 8003924:	d8800015 	stw	r2,0(sp)
 8003928:	8002cb00 	call	8002cb0 <__umodsi3>
 800392c:	da400017 	ldw	r9,0(sp)
 8003930:	1004943a 	slli	r2,r2,16
 8003934:	9cffffcc 	andi	r19,r19,65535
 8003938:	4f07383a 	mul	r3,r9,fp
 800393c:	14c8b03a 	or	r4,r2,r19
 8003940:	d9800317 	ldw	r6,12(sp)
 8003944:	20c0062e 	bgeu	r4,r3,8003960 <__divdf3+0x40c>
 8003948:	2409883a 	add	r4,r4,r16
 800394c:	48bfffc4 	addi	r2,r9,-1
 8003950:	2400c436 	bltu	r4,r16,8003c64 <__divdf3+0x710>
 8003954:	20c0c32e 	bgeu	r4,r3,8003c64 <__divdf3+0x710>
 8003958:	4a7fff84 	addi	r9,r9,-2
 800395c:	2409883a 	add	r4,r4,r16
 8003960:	8822943a 	slli	r17,r17,16
 8003964:	a80ed43a 	srli	r7,r21,16
 8003968:	aa3fffcc 	andi	r8,r21,65535
 800396c:	4c62b03a 	or	r17,r9,r17
 8003970:	8816d43a 	srli	r11,r17,16
 8003974:	897fffcc 	andi	r5,r17,65535
 8003978:	2a15383a 	mul	r10,r5,r8
 800397c:	5a19383a 	mul	r12,r11,r8
 8003980:	29cb383a 	mul	r5,r5,r7
 8003984:	5012d43a 	srli	r9,r10,16
 8003988:	20c5c83a 	sub	r2,r4,r3
 800398c:	614b883a 	add	r5,r12,r5
 8003990:	2a4b883a 	add	r5,r5,r9
 8003994:	59c7383a 	mul	r3,r11,r7
 8003998:	2b00022e 	bgeu	r5,r12,80039a4 <__divdf3+0x450>
 800399c:	01000074 	movhi	r4,1
 80039a0:	1907883a 	add	r3,r3,r4
 80039a4:	2808d43a 	srli	r4,r5,16
 80039a8:	280a943a 	slli	r5,r5,16
 80039ac:	54ffffcc 	andi	r19,r10,65535
 80039b0:	1907883a 	add	r3,r3,r4
 80039b4:	2ccb883a 	add	r5,r5,r19
 80039b8:	10c09336 	bltu	r2,r3,8003c08 <__divdf3+0x6b4>
 80039bc:	10c0ad26 	beq	r2,r3,8003c74 <__divdf3+0x720>
 80039c0:	10c7c83a 	sub	r3,r2,r3
 80039c4:	3167c83a 	sub	r19,r6,r5
 80039c8:	34ed803a 	cmpltu	r22,r6,r19
 80039cc:	1dadc83a 	sub	r22,r3,r22
 80039d0:	b400b226 	beq	r22,r16,8003c9c <__divdf3+0x748>
 80039d4:	b009883a 	mov	r4,r22
 80039d8:	b80b883a 	mov	r5,r23
 80039dc:	d9c00115 	stw	r7,4(sp)
 80039e0:	da000215 	stw	r8,8(sp)
 80039e4:	8002ca80 	call	8002ca8 <__udivsi3>
 80039e8:	b009883a 	mov	r4,r22
 80039ec:	b80b883a 	mov	r5,r23
 80039f0:	d8800315 	stw	r2,12(sp)
 80039f4:	8002cb00 	call	8002cb0 <__umodsi3>
 80039f8:	d9800317 	ldw	r6,12(sp)
 80039fc:	1004943a 	slli	r2,r2,16
 8003a00:	9808d43a 	srli	r4,r19,16
 8003a04:	372d383a 	mul	r22,r6,fp
 8003a08:	d9c00117 	ldw	r7,4(sp)
 8003a0c:	1106b03a 	or	r3,r2,r4
 8003a10:	da000217 	ldw	r8,8(sp)
 8003a14:	1d80062e 	bgeu	r3,r22,8003a30 <__divdf3+0x4dc>
 8003a18:	1c07883a 	add	r3,r3,r16
 8003a1c:	30bfffc4 	addi	r2,r6,-1
 8003a20:	1c00a036 	bltu	r3,r16,8003ca4 <__divdf3+0x750>
 8003a24:	1d809f2e 	bgeu	r3,r22,8003ca4 <__divdf3+0x750>
 8003a28:	31bfff84 	addi	r6,r6,-2
 8003a2c:	1c07883a 	add	r3,r3,r16
 8003a30:	1dadc83a 	sub	r22,r3,r22
 8003a34:	b009883a 	mov	r4,r22
 8003a38:	b80b883a 	mov	r5,r23
 8003a3c:	d9800315 	stw	r6,12(sp)
 8003a40:	d9c00115 	stw	r7,4(sp)
 8003a44:	da000215 	stw	r8,8(sp)
 8003a48:	8002ca80 	call	8002ca8 <__udivsi3>
 8003a4c:	b009883a 	mov	r4,r22
 8003a50:	b80b883a 	mov	r5,r23
 8003a54:	d8800015 	stw	r2,0(sp)
 8003a58:	8002cb00 	call	8002cb0 <__umodsi3>
 8003a5c:	da400017 	ldw	r9,0(sp)
 8003a60:	1004943a 	slli	r2,r2,16
 8003a64:	993fffcc 	andi	r4,r19,65535
 8003a68:	4f39383a 	mul	fp,r9,fp
 8003a6c:	1106b03a 	or	r3,r2,r4
 8003a70:	d9800317 	ldw	r6,12(sp)
 8003a74:	d9c00117 	ldw	r7,4(sp)
 8003a78:	da000217 	ldw	r8,8(sp)
 8003a7c:	1f00062e 	bgeu	r3,fp,8003a98 <__divdf3+0x544>
 8003a80:	1c07883a 	add	r3,r3,r16
 8003a84:	48bfffc4 	addi	r2,r9,-1
 8003a88:	1c008836 	bltu	r3,r16,8003cac <__divdf3+0x758>
 8003a8c:	1f00872e 	bgeu	r3,fp,8003cac <__divdf3+0x758>
 8003a90:	4a7fff84 	addi	r9,r9,-2
 8003a94:	1c07883a 	add	r3,r3,r16
 8003a98:	3008943a 	slli	r4,r6,16
 8003a9c:	1f07c83a 	sub	r3,r3,fp
 8003aa0:	4926b03a 	or	r19,r9,r4
 8003aa4:	993fffcc 	andi	r4,r19,65535
 8003aa8:	980cd43a 	srli	r6,r19,16
 8003aac:	220b383a 	mul	r5,r4,r8
 8003ab0:	21c5383a 	mul	r2,r4,r7
 8003ab4:	3211383a 	mul	r8,r6,r8
 8003ab8:	2808d43a 	srli	r4,r5,16
 8003abc:	31cf383a 	mul	r7,r6,r7
 8003ac0:	4085883a 	add	r2,r8,r2
 8003ac4:	1105883a 	add	r2,r2,r4
 8003ac8:	1200022e 	bgeu	r2,r8,8003ad4 <__divdf3+0x580>
 8003acc:	01000074 	movhi	r4,1
 8003ad0:	390f883a 	add	r7,r7,r4
 8003ad4:	1008d43a 	srli	r4,r2,16
 8003ad8:	1004943a 	slli	r2,r2,16
 8003adc:	297fffcc 	andi	r5,r5,65535
 8003ae0:	390f883a 	add	r7,r7,r4
 8003ae4:	1145883a 	add	r2,r2,r5
 8003ae8:	19c06536 	bltu	r3,r7,8003c80 <__divdf3+0x72c>
 8003aec:	19c09f26 	beq	r3,r7,8003d6c <__divdf3+0x818>
 8003af0:	9cc00054 	ori	r19,r19,1
 8003af4:	a100ffc4 	addi	r4,r20,1023
 8003af8:	013f500e 	bge	zero,r4,800383c <__alt_data_end+0xf800383c>
 8003afc:	988001cc 	andi	r2,r19,7
 8003b00:	10000726 	beq	r2,zero,8003b20 <__divdf3+0x5cc>
 8003b04:	98c003cc 	andi	r3,r19,15
 8003b08:	00800104 	movi	r2,4
 8003b0c:	18800426 	beq	r3,r2,8003b20 <__divdf3+0x5cc>
 8003b10:	9885883a 	add	r2,r19,r2
 8003b14:	14e1803a 	cmpltu	r16,r2,r19
 8003b18:	8c23883a 	add	r17,r17,r16
 8003b1c:	1027883a 	mov	r19,r2
 8003b20:	8880402c 	andhi	r2,r17,256
 8003b24:	10000426 	beq	r2,zero,8003b38 <__divdf3+0x5e4>
 8003b28:	00bfc034 	movhi	r2,65280
 8003b2c:	10bfffc4 	addi	r2,r2,-1
 8003b30:	a1010004 	addi	r4,r20,1024
 8003b34:	88a2703a 	and	r17,r17,r2
 8003b38:	0081ff84 	movi	r2,2046
 8003b3c:	113edf16 	blt	r2,r4,80036bc <__alt_data_end+0xf80036bc>
 8003b40:	9826d0fa 	srli	r19,r19,3
 8003b44:	8804977a 	slli	r2,r17,29
 8003b48:	8820927a 	slli	r16,r17,9
 8003b4c:	2101ffcc 	andi	r4,r4,2047
 8003b50:	14e6b03a 	or	r19,r2,r19
 8003b54:	800ad33a 	srli	r5,r16,12
 8003b58:	9180004c 	andi	r6,r18,1
 8003b5c:	003edb06 	br	80036cc <__alt_data_end+0xf80036cc>
 8003b60:	008000c4 	movi	r2,3
 8003b64:	4080a826 	beq	r8,r2,8003e08 <__divdf3+0x8b4>
 8003b68:	00800044 	movi	r2,1
 8003b6c:	4080551e 	bne	r8,r2,8003cc4 <__divdf3+0x770>
 8003b70:	e00d883a 	mov	r6,fp
 8003b74:	0009883a 	mov	r4,zero
 8003b78:	000b883a 	mov	r5,zero
 8003b7c:	0027883a 	mov	r19,zero
 8003b80:	003ed206 	br	80036cc <__alt_data_end+0xf80036cc>
 8003b84:	00800434 	movhi	r2,16
 8003b88:	89400234 	orhi	r5,r17,8
 8003b8c:	10bfffc4 	addi	r2,r2,-1
 8003b90:	b00d883a 	mov	r6,r22
 8003b94:	288a703a 	and	r5,r5,r2
 8003b98:	003f2606 	br	8003834 <__alt_data_end+0xf8003834>
 8003b9c:	d9800315 	stw	r6,12(sp)
 8003ba0:	d9c00115 	stw	r7,4(sp)
 8003ba4:	800512c0 	call	800512c <__clzsi2>
 8003ba8:	10c00804 	addi	r3,r2,32
 8003bac:	010009c4 	movi	r4,39
 8003bb0:	d9800317 	ldw	r6,12(sp)
 8003bb4:	d9c00117 	ldw	r7,4(sp)
 8003bb8:	20fee30e 	bge	r4,r3,8003748 <__alt_data_end+0xf8003748>
 8003bbc:	117ffe04 	addi	r5,r2,-8
 8003bc0:	9162983a 	sll	r17,r18,r5
 8003bc4:	0027883a 	mov	r19,zero
 8003bc8:	003ee606 	br	8003764 <__alt_data_end+0xf8003764>
 8003bcc:	3009883a 	mov	r4,r6
 8003bd0:	d9800315 	stw	r6,12(sp)
 8003bd4:	da000215 	stw	r8,8(sp)
 8003bd8:	da400015 	stw	r9,0(sp)
 8003bdc:	800512c0 	call	800512c <__clzsi2>
 8003be0:	10c00804 	addi	r3,r2,32
 8003be4:	010009c4 	movi	r4,39
 8003be8:	d9800317 	ldw	r6,12(sp)
 8003bec:	da000217 	ldw	r8,8(sp)
 8003bf0:	da400017 	ldw	r9,0(sp)
 8003bf4:	20fef20e 	bge	r4,r3,80037c0 <__alt_data_end+0xf80037c0>
 8003bf8:	10bffe04 	addi	r2,r2,-8
 8003bfc:	a8a0983a 	sll	r16,r21,r2
 8003c00:	002b883a 	mov	r21,zero
 8003c04:	003ef506 	br	80037dc <__alt_data_end+0xf80037dc>
 8003c08:	354d883a 	add	r6,r6,r21
 8003c0c:	3549803a 	cmpltu	r4,r6,r21
 8003c10:	2409883a 	add	r4,r4,r16
 8003c14:	2089883a 	add	r4,r4,r2
 8003c18:	88bfffc4 	addi	r2,r17,-1
 8003c1c:	81000c2e 	bgeu	r16,r4,8003c50 <__divdf3+0x6fc>
 8003c20:	20c04436 	bltu	r4,r3,8003d34 <__divdf3+0x7e0>
 8003c24:	19006f26 	beq	r3,r4,8003de4 <__divdf3+0x890>
 8003c28:	20c7c83a 	sub	r3,r4,r3
 8003c2c:	1023883a 	mov	r17,r2
 8003c30:	003f6406 	br	80039c4 <__alt_data_end+0xf80039c4>
 8003c34:	9d7f1736 	bltu	r19,r21,8003894 <__alt_data_end+0xf8003894>
 8003c38:	9806d07a 	srli	r3,r19,1
 8003c3c:	880497fa 	slli	r2,r17,31
 8003c40:	980c97fa 	slli	r6,r19,31
 8003c44:	882cd07a 	srli	r22,r17,1
 8003c48:	18a6b03a 	or	r19,r3,r2
 8003c4c:	003f1406 	br	80038a0 <__alt_data_end+0xf80038a0>
 8003c50:	243ff51e 	bne	r4,r16,8003c28 <__alt_data_end+0xf8003c28>
 8003c54:	357ff22e 	bgeu	r6,r21,8003c20 <__alt_data_end+0xf8003c20>
 8003c58:	80c7c83a 	sub	r3,r16,r3
 8003c5c:	1023883a 	mov	r17,r2
 8003c60:	003f5806 	br	80039c4 <__alt_data_end+0xf80039c4>
 8003c64:	1013883a 	mov	r9,r2
 8003c68:	003f3d06 	br	8003960 <__alt_data_end+0xf8003960>
 8003c6c:	1023883a 	mov	r17,r2
 8003c70:	003f2506 	br	8003908 <__alt_data_end+0xf8003908>
 8003c74:	317fe436 	bltu	r6,r5,8003c08 <__alt_data_end+0xf8003c08>
 8003c78:	0007883a 	mov	r3,zero
 8003c7c:	003f5106 	br	80039c4 <__alt_data_end+0xf80039c4>
 8003c80:	1c07883a 	add	r3,r3,r16
 8003c84:	993fffc4 	addi	r4,r19,-1
 8003c88:	1c000a2e 	bgeu	r3,r16,8003cb4 <__divdf3+0x760>
 8003c8c:	2027883a 	mov	r19,r4
 8003c90:	19ff971e 	bne	r3,r7,8003af0 <__alt_data_end+0xf8003af0>
 8003c94:	a8bf961e 	bne	r21,r2,8003af0 <__alt_data_end+0xf8003af0>
 8003c98:	003f9606 	br	8003af4 <__alt_data_end+0xf8003af4>
 8003c9c:	04ffffc4 	movi	r19,-1
 8003ca0:	003f9406 	br	8003af4 <__alt_data_end+0xf8003af4>
 8003ca4:	100d883a 	mov	r6,r2
 8003ca8:	003f6106 	br	8003a30 <__alt_data_end+0xf8003a30>
 8003cac:	1013883a 	mov	r9,r2
 8003cb0:	003f7906 	br	8003a98 <__alt_data_end+0xf8003a98>
 8003cb4:	19c02636 	bltu	r3,r7,8003d50 <__divdf3+0x7fc>
 8003cb8:	38c04d26 	beq	r7,r3,8003df0 <__divdf3+0x89c>
 8003cbc:	2027883a 	mov	r19,r4
 8003cc0:	003f8b06 	br	8003af0 <__alt_data_end+0xf8003af0>
 8003cc4:	e025883a 	mov	r18,fp
 8003cc8:	003f8a06 	br	8003af4 <__alt_data_end+0xf8003af4>
 8003ccc:	008007c4 	movi	r2,31
 8003cd0:	14002a16 	blt	r2,r16,8003d7c <__divdf3+0x828>
 8003cd4:	a5010784 	addi	r20,r20,1054
 8003cd8:	8d04983a 	sll	r2,r17,r20
 8003cdc:	9c06d83a 	srl	r3,r19,r16
 8003ce0:	9d28983a 	sll	r20,r19,r20
 8003ce4:	8c20d83a 	srl	r16,r17,r16
 8003ce8:	1886b03a 	or	r3,r3,r2
 8003cec:	a004c03a 	cmpne	r2,r20,zero
 8003cf0:	1884b03a 	or	r2,r3,r2
 8003cf4:	10c001cc 	andi	r3,r2,7
 8003cf8:	18000726 	beq	r3,zero,8003d18 <__divdf3+0x7c4>
 8003cfc:	110003cc 	andi	r4,r2,15
 8003d00:	00c00104 	movi	r3,4
 8003d04:	20c00426 	beq	r4,r3,8003d18 <__divdf3+0x7c4>
 8003d08:	10c00104 	addi	r3,r2,4
 8003d0c:	1885803a 	cmpltu	r2,r3,r2
 8003d10:	80a1883a 	add	r16,r16,r2
 8003d14:	1805883a 	mov	r2,r3
 8003d18:	80c0202c 	andhi	r3,r16,128
 8003d1c:	18002d26 	beq	r3,zero,8003dd4 <__divdf3+0x880>
 8003d20:	9180004c 	andi	r6,r18,1
 8003d24:	01000044 	movi	r4,1
 8003d28:	000b883a 	mov	r5,zero
 8003d2c:	0027883a 	mov	r19,zero
 8003d30:	003e6606 	br	80036cc <__alt_data_end+0xf80036cc>
 8003d34:	354d883a 	add	r6,r6,r21
 8003d38:	356d803a 	cmpltu	r22,r6,r21
 8003d3c:	b42d883a 	add	r22,r22,r16
 8003d40:	b12d883a 	add	r22,r22,r4
 8003d44:	8c7fff84 	addi	r17,r17,-2
 8003d48:	b0c7c83a 	sub	r3,r22,r3
 8003d4c:	003f1d06 	br	80039c4 <__alt_data_end+0xf80039c4>
 8003d50:	ad4b883a 	add	r5,r21,r21
 8003d54:	2d6b803a 	cmpltu	r21,r5,r21
 8003d58:	ac2b883a 	add	r21,r21,r16
 8003d5c:	1d47883a 	add	r3,r3,r21
 8003d60:	993fff84 	addi	r4,r19,-2
 8003d64:	282b883a 	mov	r21,r5
 8003d68:	003fc806 	br	8003c8c <__alt_data_end+0xf8003c8c>
 8003d6c:	103fc41e 	bne	r2,zero,8003c80 <__alt_data_end+0xf8003c80>
 8003d70:	002b883a 	mov	r21,zero
 8003d74:	a8bf5e1e 	bne	r21,r2,8003af0 <__alt_data_end+0xf8003af0>
 8003d78:	003f5e06 	br	8003af4 <__alt_data_end+0xf8003af4>
 8003d7c:	00bef884 	movi	r2,-1054
 8003d80:	1505c83a 	sub	r2,r2,r20
 8003d84:	00c00804 	movi	r3,32
 8003d88:	8884d83a 	srl	r2,r17,r2
 8003d8c:	80c01c26 	beq	r16,r3,8003e00 <__divdf3+0x8ac>
 8003d90:	a0c10f84 	addi	r3,r20,1086
 8003d94:	88c6983a 	sll	r3,r17,r3
 8003d98:	1cc6b03a 	or	r3,r3,r19
 8003d9c:	1806c03a 	cmpne	r3,r3,zero
 8003da0:	1884b03a 	or	r2,r3,r2
 8003da4:	140001cc 	andi	r16,r2,7
 8003da8:	8000061e 	bne	r16,zero,8003dc4 <__divdf3+0x870>
 8003dac:	000b883a 	mov	r5,zero
 8003db0:	1004d0fa 	srli	r2,r2,3
 8003db4:	9180004c 	andi	r6,r18,1
 8003db8:	0009883a 	mov	r4,zero
 8003dbc:	1426b03a 	or	r19,r2,r16
 8003dc0:	003e4206 	br	80036cc <__alt_data_end+0xf80036cc>
 8003dc4:	110003cc 	andi	r4,r2,15
 8003dc8:	00c00104 	movi	r3,4
 8003dcc:	0021883a 	mov	r16,zero
 8003dd0:	20ffcd1e 	bne	r4,r3,8003d08 <__alt_data_end+0xf8003d08>
 8003dd4:	800a927a 	slli	r5,r16,9
 8003dd8:	8020977a 	slli	r16,r16,29
 8003ddc:	280ad33a 	srli	r5,r5,12
 8003de0:	003ff306 	br	8003db0 <__alt_data_end+0xf8003db0>
 8003de4:	317fd336 	bltu	r6,r5,8003d34 <__alt_data_end+0xf8003d34>
 8003de8:	1023883a 	mov	r17,r2
 8003dec:	003fa206 	br	8003c78 <__alt_data_end+0xf8003c78>
 8003df0:	a8bfd736 	bltu	r21,r2,8003d50 <__alt_data_end+0xf8003d50>
 8003df4:	2027883a 	mov	r19,r4
 8003df8:	a8bf3d1e 	bne	r21,r2,8003af0 <__alt_data_end+0xf8003af0>
 8003dfc:	003f3d06 	br	8003af4 <__alt_data_end+0xf8003af4>
 8003e00:	0007883a 	mov	r3,zero
 8003e04:	003fe406 	br	8003d98 <__alt_data_end+0xf8003d98>
 8003e08:	00800434 	movhi	r2,16
 8003e0c:	89400234 	orhi	r5,r17,8
 8003e10:	10bfffc4 	addi	r2,r2,-1
 8003e14:	e00d883a 	mov	r6,fp
 8003e18:	288a703a 	and	r5,r5,r2
 8003e1c:	003e8506 	br	8003834 <__alt_data_end+0xf8003834>

08003e20 <__gedf2>:
 8003e20:	2804d53a 	srli	r2,r5,20
 8003e24:	3806d53a 	srli	r3,r7,20
 8003e28:	02000434 	movhi	r8,16
 8003e2c:	423fffc4 	addi	r8,r8,-1
 8003e30:	0241ffc4 	movi	r9,2047
 8003e34:	1081ffcc 	andi	r2,r2,2047
 8003e38:	2a14703a 	and	r10,r5,r8
 8003e3c:	1a46703a 	and	r3,r3,r9
 8003e40:	3a10703a 	and	r8,r7,r8
 8003e44:	280ad7fa 	srli	r5,r5,31
 8003e48:	380ed7fa 	srli	r7,r7,31
 8003e4c:	12400b26 	beq	r2,r9,8003e7c <__gedf2+0x5c>
 8003e50:	1a401626 	beq	r3,r9,8003eac <__gedf2+0x8c>
 8003e54:	10000c1e 	bne	r2,zero,8003e88 <__gedf2+0x68>
 8003e58:	5112b03a 	or	r9,r10,r4
 8003e5c:	4813003a 	cmpeq	r9,r9,zero
 8003e60:	4817883a 	mov	r11,r9
 8003e64:	18000c1e 	bne	r3,zero,8003e98 <__gedf2+0x78>
 8003e68:	4198b03a 	or	r12,r8,r6
 8003e6c:	60000a1e 	bne	r12,zero,8003e98 <__gedf2+0x78>
 8003e70:	48001326 	beq	r9,zero,8003ec0 <__gedf2+0xa0>
 8003e74:	0005883a 	mov	r2,zero
 8003e78:	f800283a 	ret
 8003e7c:	5112b03a 	or	r9,r10,r4
 8003e80:	4800191e 	bne	r9,zero,8003ee8 <__gedf2+0xc8>
 8003e84:	18800926 	beq	r3,r2,8003eac <__gedf2+0x8c>
 8003e88:	18000b1e 	bne	r3,zero,8003eb8 <__gedf2+0x98>
 8003e8c:	4192b03a 	or	r9,r8,r6
 8003e90:	0017883a 	mov	r11,zero
 8003e94:	48000a26 	beq	r9,zero,8003ec0 <__gedf2+0xa0>
 8003e98:	39c03fcc 	andi	r7,r7,255
 8003e9c:	58000726 	beq	r11,zero,8003ebc <__gedf2+0x9c>
 8003ea0:	3800081e 	bne	r7,zero,8003ec4 <__gedf2+0xa4>
 8003ea4:	00bfffc4 	movi	r2,-1
 8003ea8:	f800283a 	ret
 8003eac:	4192b03a 	or	r9,r8,r6
 8003eb0:	48000d1e 	bne	r9,zero,8003ee8 <__gedf2+0xc8>
 8003eb4:	103fe826 	beq	r2,zero,8003e58 <__alt_data_end+0xf8003e58>
 8003eb8:	39c03fcc 	andi	r7,r7,255
 8003ebc:	29c00326 	beq	r5,r7,8003ecc <__gedf2+0xac>
 8003ec0:	283ff81e 	bne	r5,zero,8003ea4 <__alt_data_end+0xf8003ea4>
 8003ec4:	00800044 	movi	r2,1
 8003ec8:	f800283a 	ret
 8003ecc:	18bffc16 	blt	r3,r2,8003ec0 <__alt_data_end+0xf8003ec0>
 8003ed0:	10c00316 	blt	r2,r3,8003ee0 <__gedf2+0xc0>
 8003ed4:	42bffa36 	bltu	r8,r10,8003ec0 <__alt_data_end+0xf8003ec0>
 8003ed8:	52000526 	beq	r10,r8,8003ef0 <__gedf2+0xd0>
 8003edc:	523fe52e 	bgeu	r10,r8,8003e74 <__alt_data_end+0xf8003e74>
 8003ee0:	283ff026 	beq	r5,zero,8003ea4 <__alt_data_end+0xf8003ea4>
 8003ee4:	003ff706 	br	8003ec4 <__alt_data_end+0xf8003ec4>
 8003ee8:	00bfff84 	movi	r2,-2
 8003eec:	f800283a 	ret
 8003ef0:	313ff336 	bltu	r6,r4,8003ec0 <__alt_data_end+0xf8003ec0>
 8003ef4:	21bfdf2e 	bgeu	r4,r6,8003e74 <__alt_data_end+0xf8003e74>
 8003ef8:	283fea26 	beq	r5,zero,8003ea4 <__alt_data_end+0xf8003ea4>
 8003efc:	003ff106 	br	8003ec4 <__alt_data_end+0xf8003ec4>

08003f00 <__ledf2>:
 8003f00:	2804d53a 	srli	r2,r5,20
 8003f04:	3810d53a 	srli	r8,r7,20
 8003f08:	00c00434 	movhi	r3,16
 8003f0c:	18ffffc4 	addi	r3,r3,-1
 8003f10:	0241ffc4 	movi	r9,2047
 8003f14:	1081ffcc 	andi	r2,r2,2047
 8003f18:	28d4703a 	and	r10,r5,r3
 8003f1c:	4250703a 	and	r8,r8,r9
 8003f20:	38c6703a 	and	r3,r7,r3
 8003f24:	280ad7fa 	srli	r5,r5,31
 8003f28:	380ed7fa 	srli	r7,r7,31
 8003f2c:	12400b26 	beq	r2,r9,8003f5c <__ledf2+0x5c>
 8003f30:	42401926 	beq	r8,r9,8003f98 <__ledf2+0x98>
 8003f34:	10000c1e 	bne	r2,zero,8003f68 <__ledf2+0x68>
 8003f38:	5112b03a 	or	r9,r10,r4
 8003f3c:	4813003a 	cmpeq	r9,r9,zero
 8003f40:	4817883a 	mov	r11,r9
 8003f44:	40000f26 	beq	r8,zero,8003f84 <__ledf2+0x84>
 8003f48:	39c03fcc 	andi	r7,r7,255
 8003f4c:	58001826 	beq	r11,zero,8003fb0 <__ledf2+0xb0>
 8003f50:	38000a1e 	bne	r7,zero,8003f7c <__ledf2+0x7c>
 8003f54:	00bfffc4 	movi	r2,-1
 8003f58:	f800283a 	ret
 8003f5c:	5112b03a 	or	r9,r10,r4
 8003f60:	48000f1e 	bne	r9,zero,8003fa0 <__ledf2+0xa0>
 8003f64:	40800c26 	beq	r8,r2,8003f98 <__ledf2+0x98>
 8003f68:	4000101e 	bne	r8,zero,8003fac <__ledf2+0xac>
 8003f6c:	1992b03a 	or	r9,r3,r6
 8003f70:	0017883a 	mov	r11,zero
 8003f74:	483ff41e 	bne	r9,zero,8003f48 <__alt_data_end+0xf8003f48>
 8003f78:	283ff61e 	bne	r5,zero,8003f54 <__alt_data_end+0xf8003f54>
 8003f7c:	00800044 	movi	r2,1
 8003f80:	f800283a 	ret
 8003f84:	1998b03a 	or	r12,r3,r6
 8003f88:	603fef1e 	bne	r12,zero,8003f48 <__alt_data_end+0xf8003f48>
 8003f8c:	483ffa26 	beq	r9,zero,8003f78 <__alt_data_end+0xf8003f78>
 8003f90:	0005883a 	mov	r2,zero
 8003f94:	f800283a 	ret
 8003f98:	1992b03a 	or	r9,r3,r6
 8003f9c:	48000226 	beq	r9,zero,8003fa8 <__ledf2+0xa8>
 8003fa0:	00800084 	movi	r2,2
 8003fa4:	f800283a 	ret
 8003fa8:	103fe326 	beq	r2,zero,8003f38 <__alt_data_end+0xf8003f38>
 8003fac:	39c03fcc 	andi	r7,r7,255
 8003fb0:	29fff11e 	bne	r5,r7,8003f78 <__alt_data_end+0xf8003f78>
 8003fb4:	40bff016 	blt	r8,r2,8003f78 <__alt_data_end+0xf8003f78>
 8003fb8:	12000316 	blt	r2,r8,8003fc8 <__ledf2+0xc8>
 8003fbc:	1abfee36 	bltu	r3,r10,8003f78 <__alt_data_end+0xf8003f78>
 8003fc0:	50c00326 	beq	r10,r3,8003fd0 <__ledf2+0xd0>
 8003fc4:	50fff22e 	bgeu	r10,r3,8003f90 <__alt_data_end+0xf8003f90>
 8003fc8:	283fe226 	beq	r5,zero,8003f54 <__alt_data_end+0xf8003f54>
 8003fcc:	003feb06 	br	8003f7c <__alt_data_end+0xf8003f7c>
 8003fd0:	313fe936 	bltu	r6,r4,8003f78 <__alt_data_end+0xf8003f78>
 8003fd4:	21bfee2e 	bgeu	r4,r6,8003f90 <__alt_data_end+0xf8003f90>
 8003fd8:	283fde26 	beq	r5,zero,8003f54 <__alt_data_end+0xf8003f54>
 8003fdc:	003fe706 	br	8003f7c <__alt_data_end+0xf8003f7c>

08003fe0 <__muldf3>:
 8003fe0:	defff204 	addi	sp,sp,-56
 8003fe4:	2804d53a 	srli	r2,r5,20
 8003fe8:	dd800a15 	stw	r22,40(sp)
 8003fec:	282cd7fa 	srli	r22,r5,31
 8003ff0:	dc000415 	stw	r16,16(sp)
 8003ff4:	04000434 	movhi	r16,16
 8003ff8:	df000c15 	stw	fp,48(sp)
 8003ffc:	dd000815 	stw	r20,32(sp)
 8004000:	dcc00715 	stw	r19,28(sp)
 8004004:	dc800615 	stw	r18,24(sp)
 8004008:	dc400515 	stw	r17,20(sp)
 800400c:	843fffc4 	addi	r16,r16,-1
 8004010:	dfc00d15 	stw	ra,52(sp)
 8004014:	ddc00b15 	stw	r23,44(sp)
 8004018:	dd400915 	stw	r21,36(sp)
 800401c:	1501ffcc 	andi	r20,r2,2047
 8004020:	2023883a 	mov	r17,r4
 8004024:	2025883a 	mov	r18,r4
 8004028:	2c20703a 	and	r16,r5,r16
 800402c:	b027883a 	mov	r19,r22
 8004030:	b7003fcc 	andi	fp,r22,255
 8004034:	a0005926 	beq	r20,zero,800419c <__muldf3+0x1bc>
 8004038:	0081ffc4 	movi	r2,2047
 800403c:	a0803426 	beq	r20,r2,8004110 <__muldf3+0x130>
 8004040:	84000434 	orhi	r16,r16,16
 8004044:	2004d77a 	srli	r2,r4,29
 8004048:	802090fa 	slli	r16,r16,3
 800404c:	202490fa 	slli	r18,r4,3
 8004050:	a53f0044 	addi	r20,r20,-1023
 8004054:	80a0b03a 	or	r16,r16,r2
 8004058:	002b883a 	mov	r21,zero
 800405c:	0015883a 	mov	r10,zero
 8004060:	3812d53a 	srli	r9,r7,20
 8004064:	3806d7fa 	srli	r3,r7,31
 8004068:	02000434 	movhi	r8,16
 800406c:	423fffc4 	addi	r8,r8,-1
 8004070:	4941ffcc 	andi	r5,r9,2047
 8004074:	302f883a 	mov	r23,r6
 8004078:	3a22703a 	and	r17,r7,r8
 800407c:	1ac03fcc 	andi	r11,r3,255
 8004080:	28006226 	beq	r5,zero,800420c <__muldf3+0x22c>
 8004084:	0081ffc4 	movi	r2,2047
 8004088:	28805a26 	beq	r5,r2,80041f4 <__muldf3+0x214>
 800408c:	8a000434 	orhi	r8,r17,16
 8004090:	3004d77a 	srli	r2,r6,29
 8004094:	401090fa 	slli	r8,r8,3
 8004098:	302e90fa 	slli	r23,r6,3
 800409c:	297f0044 	addi	r5,r5,-1023
 80040a0:	40a2b03a 	or	r17,r8,r2
 80040a4:	0013883a 	mov	r9,zero
 80040a8:	4d4cb03a 	or	r6,r9,r21
 80040ac:	300c90ba 	slli	r6,r6,2
 80040b0:	02020034 	movhi	r8,2048
 80040b4:	42103404 	addi	r8,r8,16592
 80040b8:	320d883a 	add	r6,r6,r8
 80040bc:	31800017 	ldw	r6,0(r6)
 80040c0:	a14b883a 	add	r5,r20,r5
 80040c4:	1dacf03a 	xor	r22,r3,r22
 80040c8:	2b000044 	addi	r12,r5,1
 80040cc:	3000683a 	jmp	r6
 80040d0:	0800430c 	andi	zero,at,268
 80040d4:	080042f8 	rdprs	zero,at,267
 80040d8:	080042f8 	rdprs	zero,at,267
 80040dc:	080042e4 	muli	zero,at,267
 80040e0:	0800412c 	andhi	zero,at,260
 80040e4:	0800412c 	andhi	zero,at,260
 80040e8:	080042cc 	andi	zero,at,267
 80040ec:	080042e4 	muli	zero,at,267
 80040f0:	0800412c 	andhi	zero,at,260
 80040f4:	080042cc 	andi	zero,at,267
 80040f8:	0800412c 	andhi	zero,at,260
 80040fc:	080042e4 	muli	zero,at,267
 8004100:	08004130 	cmpltui	zero,at,260
 8004104:	08004130 	cmpltui	zero,at,260
 8004108:	08004130 	cmpltui	zero,at,260
 800410c:	08004508 	cmpgei	zero,at,276
 8004110:	8104b03a 	or	r2,r16,r4
 8004114:	10006a1e 	bne	r2,zero,80042c0 <__muldf3+0x2e0>
 8004118:	05400204 	movi	r21,8
 800411c:	0021883a 	mov	r16,zero
 8004120:	0025883a 	mov	r18,zero
 8004124:	02800084 	movi	r10,2
 8004128:	003fcd06 	br	8004060 <__alt_data_end+0xf8004060>
 800412c:	b039883a 	mov	fp,r22
 8004130:	00800084 	movi	r2,2
 8004134:	50804e1e 	bne	r10,r2,8004270 <__muldf3+0x290>
 8004138:	e4c0004c 	andi	r19,fp,1
 800413c:	0101ffc4 	movi	r4,2047
 8004140:	0021883a 	mov	r16,zero
 8004144:	0025883a 	mov	r18,zero
 8004148:	2008953a 	slli	r4,r4,20
 800414c:	98c03fcc 	andi	r3,r19,255
 8004150:	01400434 	movhi	r5,16
 8004154:	297fffc4 	addi	r5,r5,-1
 8004158:	180697fa 	slli	r3,r3,31
 800415c:	8160703a 	and	r16,r16,r5
 8004160:	8120b03a 	or	r16,r16,r4
 8004164:	80c6b03a 	or	r3,r16,r3
 8004168:	9005883a 	mov	r2,r18
 800416c:	dfc00d17 	ldw	ra,52(sp)
 8004170:	df000c17 	ldw	fp,48(sp)
 8004174:	ddc00b17 	ldw	r23,44(sp)
 8004178:	dd800a17 	ldw	r22,40(sp)
 800417c:	dd400917 	ldw	r21,36(sp)
 8004180:	dd000817 	ldw	r20,32(sp)
 8004184:	dcc00717 	ldw	r19,28(sp)
 8004188:	dc800617 	ldw	r18,24(sp)
 800418c:	dc400517 	ldw	r17,20(sp)
 8004190:	dc000417 	ldw	r16,16(sp)
 8004194:	dec00e04 	addi	sp,sp,56
 8004198:	f800283a 	ret
 800419c:	8104b03a 	or	r2,r16,r4
 80041a0:	10004226 	beq	r2,zero,80042ac <__muldf3+0x2cc>
 80041a4:	8000f926 	beq	r16,zero,800458c <__muldf3+0x5ac>
 80041a8:	8009883a 	mov	r4,r16
 80041ac:	d9800315 	stw	r6,12(sp)
 80041b0:	d9c00015 	stw	r7,0(sp)
 80041b4:	800512c0 	call	800512c <__clzsi2>
 80041b8:	d9800317 	ldw	r6,12(sp)
 80041bc:	d9c00017 	ldw	r7,0(sp)
 80041c0:	1007883a 	mov	r3,r2
 80041c4:	01000a04 	movi	r4,40
 80041c8:	18bffe04 	addi	r2,r3,-8
 80041cc:	20c9c83a 	sub	r4,r4,r3
 80041d0:	80a0983a 	sll	r16,r16,r2
 80041d4:	8908d83a 	srl	r4,r17,r4
 80041d8:	88a4983a 	sll	r18,r17,r2
 80041dc:	2420b03a 	or	r16,r4,r16
 80041e0:	017f0344 	movi	r5,-1011
 80041e4:	28e9c83a 	sub	r20,r5,r3
 80041e8:	002b883a 	mov	r21,zero
 80041ec:	0015883a 	mov	r10,zero
 80041f0:	003f9b06 	br	8004060 <__alt_data_end+0xf8004060>
 80041f4:	8984b03a 	or	r2,r17,r6
 80041f8:	10002a1e 	bne	r2,zero,80042a4 <__muldf3+0x2c4>
 80041fc:	0023883a 	mov	r17,zero
 8004200:	002f883a 	mov	r23,zero
 8004204:	02400084 	movi	r9,2
 8004208:	003fa706 	br	80040a8 <__alt_data_end+0xf80040a8>
 800420c:	8984b03a 	or	r2,r17,r6
 8004210:	10002026 	beq	r2,zero,8004294 <__muldf3+0x2b4>
 8004214:	8800cc26 	beq	r17,zero,8004548 <__muldf3+0x568>
 8004218:	8809883a 	mov	r4,r17
 800421c:	d8c00215 	stw	r3,8(sp)
 8004220:	d9800315 	stw	r6,12(sp)
 8004224:	da800015 	stw	r10,0(sp)
 8004228:	dac00115 	stw	r11,4(sp)
 800422c:	800512c0 	call	800512c <__clzsi2>
 8004230:	d8c00217 	ldw	r3,8(sp)
 8004234:	d9800317 	ldw	r6,12(sp)
 8004238:	da800017 	ldw	r10,0(sp)
 800423c:	dac00117 	ldw	r11,4(sp)
 8004240:	1009883a 	mov	r4,r2
 8004244:	01400a04 	movi	r5,40
 8004248:	25fffe04 	addi	r23,r4,-8
 800424c:	290bc83a 	sub	r5,r5,r4
 8004250:	8dd0983a 	sll	r8,r17,r23
 8004254:	314ad83a 	srl	r5,r6,r5
 8004258:	35ee983a 	sll	r23,r6,r23
 800425c:	2a22b03a 	or	r17,r5,r8
 8004260:	017f0344 	movi	r5,-1011
 8004264:	290bc83a 	sub	r5,r5,r4
 8004268:	0013883a 	mov	r9,zero
 800426c:	003f8e06 	br	80040a8 <__alt_data_end+0xf80040a8>
 8004270:	008000c4 	movi	r2,3
 8004274:	50811d26 	beq	r10,r2,80046ec <__muldf3+0x70c>
 8004278:	00800044 	movi	r2,1
 800427c:	5080e01e 	bne	r10,r2,8004600 <__muldf3+0x620>
 8004280:	e0a6703a 	and	r19,fp,r2
 8004284:	0009883a 	mov	r4,zero
 8004288:	0021883a 	mov	r16,zero
 800428c:	0025883a 	mov	r18,zero
 8004290:	003fad06 	br	8004148 <__alt_data_end+0xf8004148>
 8004294:	0023883a 	mov	r17,zero
 8004298:	002f883a 	mov	r23,zero
 800429c:	02400044 	movi	r9,1
 80042a0:	003f8106 	br	80040a8 <__alt_data_end+0xf80040a8>
 80042a4:	024000c4 	movi	r9,3
 80042a8:	003f7f06 	br	80040a8 <__alt_data_end+0xf80040a8>
 80042ac:	05400104 	movi	r21,4
 80042b0:	0021883a 	mov	r16,zero
 80042b4:	0025883a 	mov	r18,zero
 80042b8:	02800044 	movi	r10,1
 80042bc:	003f6806 	br	8004060 <__alt_data_end+0xf8004060>
 80042c0:	05400304 	movi	r21,12
 80042c4:	028000c4 	movi	r10,3
 80042c8:	003f6506 	br	8004060 <__alt_data_end+0xf8004060>
 80042cc:	04000434 	movhi	r16,16
 80042d0:	0027883a 	mov	r19,zero
 80042d4:	843fffc4 	addi	r16,r16,-1
 80042d8:	04bfffc4 	movi	r18,-1
 80042dc:	0101ffc4 	movi	r4,2047
 80042e0:	003f9906 	br	8004148 <__alt_data_end+0xf8004148>
 80042e4:	8821883a 	mov	r16,r17
 80042e8:	b825883a 	mov	r18,r23
 80042ec:	5839883a 	mov	fp,r11
 80042f0:	4815883a 	mov	r10,r9
 80042f4:	003f8e06 	br	8004130 <__alt_data_end+0xf8004130>
 80042f8:	8821883a 	mov	r16,r17
 80042fc:	b825883a 	mov	r18,r23
 8004300:	b039883a 	mov	fp,r22
 8004304:	4815883a 	mov	r10,r9
 8004308:	003f8906 	br	8004130 <__alt_data_end+0xf8004130>
 800430c:	b80cd43a 	srli	r6,r23,16
 8004310:	9006d43a 	srli	r3,r18,16
 8004314:	90bfffcc 	andi	r2,r18,65535
 8004318:	bdffffcc 	andi	r23,r23,65535
 800431c:	b891383a 	mul	r8,r23,r2
 8004320:	b8c9383a 	mul	r4,r23,r3
 8004324:	309b383a 	mul	r13,r6,r2
 8004328:	400ed43a 	srli	r7,r8,16
 800432c:	30df383a 	mul	r15,r6,r3
 8004330:	235b883a 	add	r13,r4,r13
 8004334:	69db883a 	add	r13,r13,r7
 8004338:	6900022e 	bgeu	r13,r4,8004344 <__muldf3+0x364>
 800433c:	01000074 	movhi	r4,1
 8004340:	791f883a 	add	r15,r15,r4
 8004344:	8828d43a 	srli	r20,r17,16
 8004348:	8c7fffcc 	andi	r17,r17,65535
 800434c:	888f383a 	mul	r7,r17,r2
 8004350:	88d3383a 	mul	r9,r17,r3
 8004354:	a0a5383a 	mul	r18,r20,r2
 8004358:	3816d43a 	srli	r11,r7,16
 800435c:	6814943a 	slli	r10,r13,16
 8004360:	4ca5883a 	add	r18,r9,r18
 8004364:	423fffcc 	andi	r8,r8,65535
 8004368:	92e5883a 	add	r18,r18,r11
 800436c:	6808d43a 	srli	r4,r13,16
 8004370:	5215883a 	add	r10,r10,r8
 8004374:	a0c7383a 	mul	r3,r20,r3
 8004378:	9240022e 	bgeu	r18,r9,8004384 <__muldf3+0x3a4>
 800437c:	00800074 	movhi	r2,1
 8004380:	1887883a 	add	r3,r3,r2
 8004384:	802ad43a 	srli	r21,r16,16
 8004388:	80bfffcc 	andi	r2,r16,65535
 800438c:	b893383a 	mul	r9,r23,r2
 8004390:	3091383a 	mul	r8,r6,r2
 8004394:	bd6f383a 	mul	r23,r23,r21
 8004398:	9026943a 	slli	r19,r18,16
 800439c:	481ad43a 	srli	r13,r9,16
 80043a0:	9024d43a 	srli	r18,r18,16
 80043a4:	39ffffcc 	andi	r7,r7,65535
 80043a8:	ba11883a 	add	r8,r23,r8
 80043ac:	99e7883a 	add	r19,r19,r7
 80043b0:	4351883a 	add	r8,r8,r13
 80043b4:	1c97883a 	add	r11,r3,r18
 80043b8:	354d383a 	mul	r6,r6,r21
 80043bc:	9925883a 	add	r18,r19,r4
 80043c0:	45c0022e 	bgeu	r8,r23,80043cc <__muldf3+0x3ec>
 80043c4:	00c00074 	movhi	r3,1
 80043c8:	30cd883a 	add	r6,r6,r3
 80043cc:	8889383a 	mul	r4,r17,r2
 80043d0:	8d63383a 	mul	r17,r17,r21
 80043d4:	a085383a 	mul	r2,r20,r2
 80043d8:	200ed43a 	srli	r7,r4,16
 80043dc:	401cd43a 	srli	r14,r8,16
 80043e0:	401a943a 	slli	r13,r8,16
 80043e4:	8885883a 	add	r2,r17,r2
 80043e8:	4a3fffcc 	andi	r8,r9,65535
 80043ec:	11c5883a 	add	r2,r2,r7
 80043f0:	339d883a 	add	r14,r6,r14
 80043f4:	6a11883a 	add	r8,r13,r8
 80043f8:	a561383a 	mul	r16,r20,r21
 80043fc:	1440022e 	bgeu	r2,r17,8004408 <__muldf3+0x428>
 8004400:	00c00074 	movhi	r3,1
 8004404:	80e1883a 	add	r16,r16,r3
 8004408:	1006943a 	slli	r3,r2,16
 800440c:	213fffcc 	andi	r4,r4,65535
 8004410:	93db883a 	add	r13,r18,r15
 8004414:	1909883a 	add	r4,r3,r4
 8004418:	22c7883a 	add	r3,r4,r11
 800441c:	6cd3803a 	cmpltu	r9,r13,r19
 8004420:	6a09883a 	add	r4,r13,r8
 8004424:	1a5b883a 	add	r13,r3,r9
 8004428:	2211803a 	cmpltu	r8,r4,r8
 800442c:	734d883a 	add	r6,r14,r13
 8004430:	100ed43a 	srli	r7,r2,16
 8004434:	6a53803a 	cmpltu	r9,r13,r9
 8004438:	3205883a 	add	r2,r6,r8
 800443c:	1ac7803a 	cmpltu	r3,r3,r11
 8004440:	1211803a 	cmpltu	r8,r2,r8
 8004444:	48c6b03a 	or	r3,r9,r3
 8004448:	338d803a 	cmpltu	r6,r6,r14
 800444c:	19c7883a 	add	r3,r3,r7
 8004450:	418cb03a 	or	r6,r8,r6
 8004454:	1987883a 	add	r3,r3,r6
 8004458:	2024927a 	slli	r18,r4,9
 800445c:	1c07883a 	add	r3,r3,r16
 8004460:	1806927a 	slli	r3,r3,9
 8004464:	1020d5fa 	srli	r16,r2,23
 8004468:	2008d5fa 	srli	r4,r4,23
 800446c:	9294b03a 	or	r10,r18,r10
 8004470:	1004927a 	slli	r2,r2,9
 8004474:	5024c03a 	cmpne	r18,r10,zero
 8004478:	1c20b03a 	or	r16,r3,r16
 800447c:	9108b03a 	or	r4,r18,r4
 8004480:	80c0402c 	andhi	r3,r16,256
 8004484:	20a4b03a 	or	r18,r4,r2
 8004488:	18000726 	beq	r3,zero,80044a8 <__muldf3+0x4c8>
 800448c:	9006d07a 	srli	r3,r18,1
 8004490:	800897fa 	slli	r4,r16,31
 8004494:	9080004c 	andi	r2,r18,1
 8004498:	8020d07a 	srli	r16,r16,1
 800449c:	10c4b03a 	or	r2,r2,r3
 80044a0:	1124b03a 	or	r18,r2,r4
 80044a4:	600b883a 	mov	r5,r12
 80044a8:	2900ffc4 	addi	r4,r5,1023
 80044ac:	01004b0e 	bge	zero,r4,80045dc <__muldf3+0x5fc>
 80044b0:	908001cc 	andi	r2,r18,7
 80044b4:	10000726 	beq	r2,zero,80044d4 <__muldf3+0x4f4>
 80044b8:	90c003cc 	andi	r3,r18,15
 80044bc:	00800104 	movi	r2,4
 80044c0:	18800426 	beq	r3,r2,80044d4 <__muldf3+0x4f4>
 80044c4:	9087883a 	add	r3,r18,r2
 80044c8:	1c85803a 	cmpltu	r2,r3,r18
 80044cc:	80a1883a 	add	r16,r16,r2
 80044d0:	1825883a 	mov	r18,r3
 80044d4:	8080402c 	andhi	r2,r16,256
 80044d8:	10000426 	beq	r2,zero,80044ec <__muldf3+0x50c>
 80044dc:	00bfc034 	movhi	r2,65280
 80044e0:	10bfffc4 	addi	r2,r2,-1
 80044e4:	29010004 	addi	r4,r5,1024
 80044e8:	80a0703a 	and	r16,r16,r2
 80044ec:	0081ff84 	movi	r2,2046
 80044f0:	1100320e 	bge	r2,r4,80045bc <__muldf3+0x5dc>
 80044f4:	b4c0004c 	andi	r19,r22,1
 80044f8:	0101ffc4 	movi	r4,2047
 80044fc:	0021883a 	mov	r16,zero
 8004500:	0025883a 	mov	r18,zero
 8004504:	003f1006 	br	8004148 <__alt_data_end+0xf8004148>
 8004508:	8080022c 	andhi	r2,r16,8
 800450c:	10000926 	beq	r2,zero,8004534 <__muldf3+0x554>
 8004510:	8880022c 	andhi	r2,r17,8
 8004514:	1000071e 	bne	r2,zero,8004534 <__muldf3+0x554>
 8004518:	00800434 	movhi	r2,16
 800451c:	8c000234 	orhi	r16,r17,8
 8004520:	10bfffc4 	addi	r2,r2,-1
 8004524:	1827883a 	mov	r19,r3
 8004528:	80a0703a 	and	r16,r16,r2
 800452c:	b825883a 	mov	r18,r23
 8004530:	003f6a06 	br	80042dc <__alt_data_end+0xf80042dc>
 8004534:	00800434 	movhi	r2,16
 8004538:	84000234 	orhi	r16,r16,8
 800453c:	10bfffc4 	addi	r2,r2,-1
 8004540:	80a0703a 	and	r16,r16,r2
 8004544:	003f6506 	br	80042dc <__alt_data_end+0xf80042dc>
 8004548:	3009883a 	mov	r4,r6
 800454c:	d8c00215 	stw	r3,8(sp)
 8004550:	d9800315 	stw	r6,12(sp)
 8004554:	da800015 	stw	r10,0(sp)
 8004558:	dac00115 	stw	r11,4(sp)
 800455c:	800512c0 	call	800512c <__clzsi2>
 8004560:	11000804 	addi	r4,r2,32
 8004564:	014009c4 	movi	r5,39
 8004568:	d8c00217 	ldw	r3,8(sp)
 800456c:	d9800317 	ldw	r6,12(sp)
 8004570:	da800017 	ldw	r10,0(sp)
 8004574:	dac00117 	ldw	r11,4(sp)
 8004578:	293f320e 	bge	r5,r4,8004244 <__alt_data_end+0xf8004244>
 800457c:	10bffe04 	addi	r2,r2,-8
 8004580:	b8a2983a 	sll	r17,r23,r2
 8004584:	002f883a 	mov	r23,zero
 8004588:	003f3506 	br	8004260 <__alt_data_end+0xf8004260>
 800458c:	d9800315 	stw	r6,12(sp)
 8004590:	d9c00015 	stw	r7,0(sp)
 8004594:	800512c0 	call	800512c <__clzsi2>
 8004598:	10c00804 	addi	r3,r2,32
 800459c:	010009c4 	movi	r4,39
 80045a0:	d9800317 	ldw	r6,12(sp)
 80045a4:	d9c00017 	ldw	r7,0(sp)
 80045a8:	20ff060e 	bge	r4,r3,80041c4 <__alt_data_end+0xf80041c4>
 80045ac:	10bffe04 	addi	r2,r2,-8
 80045b0:	88a0983a 	sll	r16,r17,r2
 80045b4:	0025883a 	mov	r18,zero
 80045b8:	003f0906 	br	80041e0 <__alt_data_end+0xf80041e0>
 80045bc:	9004d0fa 	srli	r2,r18,3
 80045c0:	8024977a 	slli	r18,r16,29
 80045c4:	8020927a 	slli	r16,r16,9
 80045c8:	2101ffcc 	andi	r4,r4,2047
 80045cc:	90a4b03a 	or	r18,r18,r2
 80045d0:	8020d33a 	srli	r16,r16,12
 80045d4:	b4c0004c 	andi	r19,r22,1
 80045d8:	003edb06 	br	8004148 <__alt_data_end+0xf8004148>
 80045dc:	00ff0084 	movi	r3,-1022
 80045e0:	1947c83a 	sub	r3,r3,r5
 80045e4:	00800e04 	movi	r2,56
 80045e8:	10c0080e 	bge	r2,r3,800460c <__muldf3+0x62c>
 80045ec:	b4c0004c 	andi	r19,r22,1
 80045f0:	0009883a 	mov	r4,zero
 80045f4:	0021883a 	mov	r16,zero
 80045f8:	0025883a 	mov	r18,zero
 80045fc:	003ed206 	br	8004148 <__alt_data_end+0xf8004148>
 8004600:	600b883a 	mov	r5,r12
 8004604:	e02d883a 	mov	r22,fp
 8004608:	003fa706 	br	80044a8 <__alt_data_end+0xf80044a8>
 800460c:	008007c4 	movi	r2,31
 8004610:	10c01816 	blt	r2,r3,8004674 <__muldf3+0x694>
 8004614:	29410784 	addi	r5,r5,1054
 8004618:	8144983a 	sll	r2,r16,r5
 800461c:	90c8d83a 	srl	r4,r18,r3
 8004620:	914a983a 	sll	r5,r18,r5
 8004624:	80c6d83a 	srl	r3,r16,r3
 8004628:	2088b03a 	or	r4,r4,r2
 800462c:	2804c03a 	cmpne	r2,r5,zero
 8004630:	2084b03a 	or	r2,r4,r2
 8004634:	110001cc 	andi	r4,r2,7
 8004638:	20000726 	beq	r4,zero,8004658 <__muldf3+0x678>
 800463c:	114003cc 	andi	r5,r2,15
 8004640:	01000104 	movi	r4,4
 8004644:	29000426 	beq	r5,r4,8004658 <__muldf3+0x678>
 8004648:	11000104 	addi	r4,r2,4
 800464c:	2085803a 	cmpltu	r2,r4,r2
 8004650:	1887883a 	add	r3,r3,r2
 8004654:	2005883a 	mov	r2,r4
 8004658:	1900202c 	andhi	r4,r3,128
 800465c:	20001826 	beq	r4,zero,80046c0 <__muldf3+0x6e0>
 8004660:	b4c0004c 	andi	r19,r22,1
 8004664:	01000044 	movi	r4,1
 8004668:	0021883a 	mov	r16,zero
 800466c:	0025883a 	mov	r18,zero
 8004670:	003eb506 	br	8004148 <__alt_data_end+0xf8004148>
 8004674:	00bef884 	movi	r2,-1054
 8004678:	1145c83a 	sub	r2,r2,r5
 800467c:	8088d83a 	srl	r4,r16,r2
 8004680:	00800804 	movi	r2,32
 8004684:	18801726 	beq	r3,r2,80046e4 <__muldf3+0x704>
 8004688:	28810f84 	addi	r2,r5,1086
 800468c:	8084983a 	sll	r2,r16,r2
 8004690:	1484b03a 	or	r2,r2,r18
 8004694:	1004c03a 	cmpne	r2,r2,zero
 8004698:	1104b03a 	or	r2,r2,r4
 800469c:	10c001cc 	andi	r3,r2,7
 80046a0:	18000b1e 	bne	r3,zero,80046d0 <__muldf3+0x6f0>
 80046a4:	0021883a 	mov	r16,zero
 80046a8:	1004d0fa 	srli	r2,r2,3
 80046ac:	b4c0004c 	andi	r19,r22,1
 80046b0:	0009883a 	mov	r4,zero
 80046b4:	10e4b03a 	or	r18,r2,r3
 80046b8:	003ea306 	br	8004148 <__alt_data_end+0xf8004148>
 80046bc:	0007883a 	mov	r3,zero
 80046c0:	1820927a 	slli	r16,r3,9
 80046c4:	1806977a 	slli	r3,r3,29
 80046c8:	8020d33a 	srli	r16,r16,12
 80046cc:	003ff606 	br	80046a8 <__alt_data_end+0xf80046a8>
 80046d0:	110003cc 	andi	r4,r2,15
 80046d4:	00c00104 	movi	r3,4
 80046d8:	20fff826 	beq	r4,r3,80046bc <__alt_data_end+0xf80046bc>
 80046dc:	0007883a 	mov	r3,zero
 80046e0:	003fd906 	br	8004648 <__alt_data_end+0xf8004648>
 80046e4:	0005883a 	mov	r2,zero
 80046e8:	003fe906 	br	8004690 <__alt_data_end+0xf8004690>
 80046ec:	00800434 	movhi	r2,16
 80046f0:	84000234 	orhi	r16,r16,8
 80046f4:	10bfffc4 	addi	r2,r2,-1
 80046f8:	e4c0004c 	andi	r19,fp,1
 80046fc:	80a0703a 	and	r16,r16,r2
 8004700:	003ef606 	br	80042dc <__alt_data_end+0xf80042dc>

08004704 <__subdf3>:
 8004704:	00c00434 	movhi	r3,16
 8004708:	18ffffc4 	addi	r3,r3,-1
 800470c:	defffb04 	addi	sp,sp,-20
 8004710:	28d2703a 	and	r9,r5,r3
 8004714:	3814d53a 	srli	r10,r7,20
 8004718:	38c6703a 	and	r3,r7,r3
 800471c:	3004d77a 	srli	r2,r6,29
 8004720:	dc800215 	stw	r18,8(sp)
 8004724:	dc000015 	stw	r16,0(sp)
 8004728:	2824d7fa 	srli	r18,r5,31
 800472c:	2820d53a 	srli	r16,r5,20
 8004730:	481290fa 	slli	r9,r9,3
 8004734:	200ad77a 	srli	r5,r4,29
 8004738:	180690fa 	slli	r3,r3,3
 800473c:	dc400115 	stw	r17,4(sp)
 8004740:	dfc00415 	stw	ra,16(sp)
 8004744:	202290fa 	slli	r17,r4,3
 8004748:	dcc00315 	stw	r19,12(sp)
 800474c:	5281ffcc 	andi	r10,r10,2047
 8004750:	0101ffc4 	movi	r4,2047
 8004754:	9011883a 	mov	r8,r18
 8004758:	8401ffcc 	andi	r16,r16,2047
 800475c:	94803fcc 	andi	r18,r18,255
 8004760:	494ab03a 	or	r5,r9,r5
 8004764:	380ed7fa 	srli	r7,r7,31
 8004768:	1886b03a 	or	r3,r3,r2
 800476c:	300c90fa 	slli	r6,r6,3
 8004770:	51009026 	beq	r10,r4,80049b4 <__subdf3+0x2b0>
 8004774:	39c0005c 	xori	r7,r7,1
 8004778:	8285c83a 	sub	r2,r16,r10
 800477c:	91c06f26 	beq	r18,r7,800493c <__subdf3+0x238>
 8004780:	0080b10e 	bge	zero,r2,8004a48 <__subdf3+0x344>
 8004784:	50002a1e 	bne	r10,zero,8004830 <__subdf3+0x12c>
 8004788:	1988b03a 	or	r4,r3,r6
 800478c:	2000941e 	bne	r4,zero,80049e0 <__subdf3+0x2dc>
 8004790:	888001cc 	andi	r2,r17,7
 8004794:	10005b26 	beq	r2,zero,8004904 <__subdf3+0x200>
 8004798:	88c003cc 	andi	r3,r17,15
 800479c:	00800104 	movi	r2,4
 80047a0:	18805826 	beq	r3,r2,8004904 <__subdf3+0x200>
 80047a4:	88c00104 	addi	r3,r17,4
 80047a8:	1c63803a 	cmpltu	r17,r3,r17
 80047ac:	2c4b883a 	add	r5,r5,r17
 80047b0:	2880202c 	andhi	r2,r5,128
 80047b4:	9200004c 	andi	r8,r18,1
 80047b8:	1823883a 	mov	r17,r3
 80047bc:	10005426 	beq	r2,zero,8004910 <__subdf3+0x20c>
 80047c0:	84000044 	addi	r16,r16,1
 80047c4:	0081ffc4 	movi	r2,2047
 80047c8:	8080bf26 	beq	r16,r2,8004ac8 <__subdf3+0x3c4>
 80047cc:	013fe034 	movhi	r4,65408
 80047d0:	213fffc4 	addi	r4,r4,-1
 80047d4:	290a703a 	and	r5,r5,r4
 80047d8:	2804977a 	slli	r2,r5,29
 80047dc:	280a927a 	slli	r5,r5,9
 80047e0:	8822d0fa 	srli	r17,r17,3
 80047e4:	8401ffcc 	andi	r16,r16,2047
 80047e8:	2808d33a 	srli	r4,r5,12
 80047ec:	1444b03a 	or	r2,r2,r17
 80047f0:	8401ffcc 	andi	r16,r16,2047
 80047f4:	800a953a 	slli	r5,r16,20
 80047f8:	40c03fcc 	andi	r3,r8,255
 80047fc:	04000434 	movhi	r16,16
 8004800:	180697fa 	slli	r3,r3,31
 8004804:	843fffc4 	addi	r16,r16,-1
 8004808:	2420703a 	and	r16,r4,r16
 800480c:	8160b03a 	or	r16,r16,r5
 8004810:	80c6b03a 	or	r3,r16,r3
 8004814:	dfc00417 	ldw	ra,16(sp)
 8004818:	dcc00317 	ldw	r19,12(sp)
 800481c:	dc800217 	ldw	r18,8(sp)
 8004820:	dc400117 	ldw	r17,4(sp)
 8004824:	dc000017 	ldw	r16,0(sp)
 8004828:	dec00504 	addi	sp,sp,20
 800482c:	f800283a 	ret
 8004830:	0101ffc4 	movi	r4,2047
 8004834:	813fd626 	beq	r16,r4,8004790 <__alt_data_end+0xf8004790>
 8004838:	18c02034 	orhi	r3,r3,128
 800483c:	01000e04 	movi	r4,56
 8004840:	2080a416 	blt	r4,r2,8004ad4 <__subdf3+0x3d0>
 8004844:	010007c4 	movi	r4,31
 8004848:	2080c716 	blt	r4,r2,8004b68 <__subdf3+0x464>
 800484c:	01000804 	movi	r4,32
 8004850:	2089c83a 	sub	r4,r4,r2
 8004854:	1910983a 	sll	r8,r3,r4
 8004858:	308ed83a 	srl	r7,r6,r2
 800485c:	3108983a 	sll	r4,r6,r4
 8004860:	1884d83a 	srl	r2,r3,r2
 8004864:	41ccb03a 	or	r6,r8,r7
 8004868:	2008c03a 	cmpne	r4,r4,zero
 800486c:	310cb03a 	or	r6,r6,r4
 8004870:	898dc83a 	sub	r6,r17,r6
 8004874:	89a3803a 	cmpltu	r17,r17,r6
 8004878:	288bc83a 	sub	r5,r5,r2
 800487c:	2c4bc83a 	sub	r5,r5,r17
 8004880:	3023883a 	mov	r17,r6
 8004884:	2880202c 	andhi	r2,r5,128
 8004888:	10006b26 	beq	r2,zero,8004a38 <__subdf3+0x334>
 800488c:	04c02034 	movhi	r19,128
 8004890:	9cffffc4 	addi	r19,r19,-1
 8004894:	2ce6703a 	and	r19,r5,r19
 8004898:	98007c26 	beq	r19,zero,8004a8c <__subdf3+0x388>
 800489c:	9809883a 	mov	r4,r19
 80048a0:	800512c0 	call	800512c <__clzsi2>
 80048a4:	10fffe04 	addi	r3,r2,-8
 80048a8:	010007c4 	movi	r4,31
 80048ac:	20c07d16 	blt	r4,r3,8004aa4 <__subdf3+0x3a0>
 80048b0:	01400a04 	movi	r5,40
 80048b4:	2885c83a 	sub	r2,r5,r2
 80048b8:	888ad83a 	srl	r5,r17,r2
 80048bc:	98e6983a 	sll	r19,r19,r3
 80048c0:	88e2983a 	sll	r17,r17,r3
 80048c4:	2ce6b03a 	or	r19,r5,r19
 80048c8:	1c007a16 	blt	r3,r16,8004ab4 <__subdf3+0x3b0>
 80048cc:	1c21c83a 	sub	r16,r3,r16
 80048d0:	81400044 	addi	r5,r16,1
 80048d4:	00c007c4 	movi	r3,31
 80048d8:	19409616 	blt	r3,r5,8004b34 <__subdf3+0x430>
 80048dc:	1c21c83a 	sub	r16,r3,r16
 80048e0:	8c08983a 	sll	r4,r17,r16
 80048e4:	8946d83a 	srl	r3,r17,r5
 80048e8:	9c20983a 	sll	r16,r19,r16
 80048ec:	2008c03a 	cmpne	r4,r4,zero
 80048f0:	994ad83a 	srl	r5,r19,r5
 80048f4:	1c06b03a 	or	r3,r3,r16
 80048f8:	1922b03a 	or	r17,r3,r4
 80048fc:	0021883a 	mov	r16,zero
 8004900:	003fa306 	br	8004790 <__alt_data_end+0xf8004790>
 8004904:	2880202c 	andhi	r2,r5,128
 8004908:	9200004c 	andi	r8,r18,1
 800490c:	103fac1e 	bne	r2,zero,80047c0 <__alt_data_end+0xf80047c0>
 8004910:	2804977a 	slli	r2,r5,29
 8004914:	8822d0fa 	srli	r17,r17,3
 8004918:	00c1ffc4 	movi	r3,2047
 800491c:	280ad0fa 	srli	r5,r5,3
 8004920:	1444b03a 	or	r2,r2,r17
 8004924:	80c02726 	beq	r16,r3,80049c4 <__subdf3+0x2c0>
 8004928:	01000434 	movhi	r4,16
 800492c:	213fffc4 	addi	r4,r4,-1
 8004930:	80e0703a 	and	r16,r16,r3
 8004934:	2908703a 	and	r4,r5,r4
 8004938:	003fad06 	br	80047f0 <__alt_data_end+0xf80047f0>
 800493c:	0080690e 	bge	zero,r2,8004ae4 <__subdf3+0x3e0>
 8004940:	50002f26 	beq	r10,zero,8004a00 <__subdf3+0x2fc>
 8004944:	0101ffc4 	movi	r4,2047
 8004948:	813f9126 	beq	r16,r4,8004790 <__alt_data_end+0xf8004790>
 800494c:	18c02034 	orhi	r3,r3,128
 8004950:	01000e04 	movi	r4,56
 8004954:	2080b00e 	bge	r4,r2,8004c18 <__subdf3+0x514>
 8004958:	198cb03a 	or	r6,r3,r6
 800495c:	300ec03a 	cmpne	r7,r6,zero
 8004960:	0005883a 	mov	r2,zero
 8004964:	3c4f883a 	add	r7,r7,r17
 8004968:	3c63803a 	cmpltu	r17,r7,r17
 800496c:	114b883a 	add	r5,r2,r5
 8004970:	2c4b883a 	add	r5,r5,r17
 8004974:	3823883a 	mov	r17,r7
 8004978:	2880202c 	andhi	r2,r5,128
 800497c:	10002e26 	beq	r2,zero,8004a38 <__subdf3+0x334>
 8004980:	84000044 	addi	r16,r16,1
 8004984:	0081ffc4 	movi	r2,2047
 8004988:	8080de26 	beq	r16,r2,8004d04 <__subdf3+0x600>
 800498c:	00bfe034 	movhi	r2,65408
 8004990:	10bfffc4 	addi	r2,r2,-1
 8004994:	288a703a 	and	r5,r5,r2
 8004998:	880cd07a 	srli	r6,r17,1
 800499c:	280897fa 	slli	r4,r5,31
 80049a0:	88c0004c 	andi	r3,r17,1
 80049a4:	30e2b03a 	or	r17,r6,r3
 80049a8:	280ad07a 	srli	r5,r5,1
 80049ac:	8922b03a 	or	r17,r17,r4
 80049b0:	003f7706 	br	8004790 <__alt_data_end+0xf8004790>
 80049b4:	1984b03a 	or	r2,r3,r6
 80049b8:	103f6e26 	beq	r2,zero,8004774 <__alt_data_end+0xf8004774>
 80049bc:	39c03fcc 	andi	r7,r7,255
 80049c0:	003f6d06 	br	8004778 <__alt_data_end+0xf8004778>
 80049c4:	1146b03a 	or	r3,r2,r5
 80049c8:	18003f26 	beq	r3,zero,8004ac8 <__subdf3+0x3c4>
 80049cc:	00c00434 	movhi	r3,16
 80049d0:	29000234 	orhi	r4,r5,8
 80049d4:	18ffffc4 	addi	r3,r3,-1
 80049d8:	20c8703a 	and	r4,r4,r3
 80049dc:	003f8406 	br	80047f0 <__alt_data_end+0xf80047f0>
 80049e0:	10bfffc4 	addi	r2,r2,-1
 80049e4:	1000501e 	bne	r2,zero,8004b28 <__subdf3+0x424>
 80049e8:	898fc83a 	sub	r7,r17,r6
 80049ec:	89e3803a 	cmpltu	r17,r17,r7
 80049f0:	28cbc83a 	sub	r5,r5,r3
 80049f4:	2c4bc83a 	sub	r5,r5,r17
 80049f8:	3823883a 	mov	r17,r7
 80049fc:	003fa106 	br	8004884 <__alt_data_end+0xf8004884>
 8004a00:	1988b03a 	or	r4,r3,r6
 8004a04:	203f6226 	beq	r4,zero,8004790 <__alt_data_end+0xf8004790>
 8004a08:	10bfffc4 	addi	r2,r2,-1
 8004a0c:	10009b1e 	bne	r2,zero,8004c7c <__subdf3+0x578>
 8004a10:	344d883a 	add	r6,r6,r17
 8004a14:	3463803a 	cmpltu	r17,r6,r17
 8004a18:	194b883a 	add	r5,r3,r5
 8004a1c:	2c4b883a 	add	r5,r5,r17
 8004a20:	3023883a 	mov	r17,r6
 8004a24:	003fd406 	br	8004978 <__alt_data_end+0xf8004978>
 8004a28:	1106b03a 	or	r3,r2,r4
 8004a2c:	1800b426 	beq	r3,zero,8004d00 <__subdf3+0x5fc>
 8004a30:	100b883a 	mov	r5,r2
 8004a34:	2023883a 	mov	r17,r4
 8004a38:	888001cc 	andi	r2,r17,7
 8004a3c:	103f561e 	bne	r2,zero,8004798 <__alt_data_end+0xf8004798>
 8004a40:	9200004c 	andi	r8,r18,1
 8004a44:	003fb206 	br	8004910 <__alt_data_end+0xf8004910>
 8004a48:	1000531e 	bne	r2,zero,8004b98 <__subdf3+0x494>
 8004a4c:	80800044 	addi	r2,r16,1
 8004a50:	1081ffcc 	andi	r2,r2,2047
 8004a54:	01000044 	movi	r4,1
 8004a58:	2080a00e 	bge	r4,r2,8004cdc <__subdf3+0x5d8>
 8004a5c:	8985c83a 	sub	r2,r17,r6
 8004a60:	8889803a 	cmpltu	r4,r17,r2
 8004a64:	28e7c83a 	sub	r19,r5,r3
 8004a68:	9927c83a 	sub	r19,r19,r4
 8004a6c:	9900202c 	andhi	r4,r19,128
 8004a70:	20006226 	beq	r4,zero,8004bfc <__subdf3+0x4f8>
 8004a74:	3463c83a 	sub	r17,r6,r17
 8004a78:	194bc83a 	sub	r5,r3,r5
 8004a7c:	344d803a 	cmpltu	r6,r6,r17
 8004a80:	29a7c83a 	sub	r19,r5,r6
 8004a84:	3825883a 	mov	r18,r7
 8004a88:	983f841e 	bne	r19,zero,800489c <__alt_data_end+0xf800489c>
 8004a8c:	8809883a 	mov	r4,r17
 8004a90:	800512c0 	call	800512c <__clzsi2>
 8004a94:	10800804 	addi	r2,r2,32
 8004a98:	10fffe04 	addi	r3,r2,-8
 8004a9c:	010007c4 	movi	r4,31
 8004aa0:	20ff830e 	bge	r4,r3,80048b0 <__alt_data_end+0xf80048b0>
 8004aa4:	14fff604 	addi	r19,r2,-40
 8004aa8:	8ce6983a 	sll	r19,r17,r19
 8004aac:	0023883a 	mov	r17,zero
 8004ab0:	1c3f860e 	bge	r3,r16,80048cc <__alt_data_end+0xf80048cc>
 8004ab4:	017fe034 	movhi	r5,65408
 8004ab8:	297fffc4 	addi	r5,r5,-1
 8004abc:	80e1c83a 	sub	r16,r16,r3
 8004ac0:	994a703a 	and	r5,r19,r5
 8004ac4:	003f3206 	br	8004790 <__alt_data_end+0xf8004790>
 8004ac8:	0009883a 	mov	r4,zero
 8004acc:	0005883a 	mov	r2,zero
 8004ad0:	003f4706 	br	80047f0 <__alt_data_end+0xf80047f0>
 8004ad4:	198cb03a 	or	r6,r3,r6
 8004ad8:	300cc03a 	cmpne	r6,r6,zero
 8004adc:	0005883a 	mov	r2,zero
 8004ae0:	003f6306 	br	8004870 <__alt_data_end+0xf8004870>
 8004ae4:	10009d1e 	bne	r2,zero,8004d5c <__subdf3+0x658>
 8004ae8:	81c00044 	addi	r7,r16,1
 8004aec:	3881ffcc 	andi	r2,r7,2047
 8004af0:	02400044 	movi	r9,1
 8004af4:	4880680e 	bge	r9,r2,8004c98 <__subdf3+0x594>
 8004af8:	0081ffc4 	movi	r2,2047
 8004afc:	3880ae26 	beq	r7,r2,8004db8 <__subdf3+0x6b4>
 8004b00:	344d883a 	add	r6,r6,r17
 8004b04:	3463803a 	cmpltu	r17,r6,r17
 8004b08:	194b883a 	add	r5,r3,r5
 8004b0c:	2c4b883a 	add	r5,r5,r17
 8004b10:	282297fa 	slli	r17,r5,31
 8004b14:	300cd07a 	srli	r6,r6,1
 8004b18:	280ad07a 	srli	r5,r5,1
 8004b1c:	3821883a 	mov	r16,r7
 8004b20:	89a2b03a 	or	r17,r17,r6
 8004b24:	003f1a06 	br	8004790 <__alt_data_end+0xf8004790>
 8004b28:	0101ffc4 	movi	r4,2047
 8004b2c:	813f431e 	bne	r16,r4,800483c <__alt_data_end+0xf800483c>
 8004b30:	003f1706 	br	8004790 <__alt_data_end+0xf8004790>
 8004b34:	80bff844 	addi	r2,r16,-31
 8004b38:	00c00804 	movi	r3,32
 8004b3c:	9884d83a 	srl	r2,r19,r2
 8004b40:	28c05126 	beq	r5,r3,8004c88 <__subdf3+0x584>
 8004b44:	00c00fc4 	movi	r3,63
 8004b48:	1c21c83a 	sub	r16,r3,r16
 8004b4c:	9c26983a 	sll	r19,r19,r16
 8004b50:	9c62b03a 	or	r17,r19,r17
 8004b54:	8822c03a 	cmpne	r17,r17,zero
 8004b58:	88a2b03a 	or	r17,r17,r2
 8004b5c:	000b883a 	mov	r5,zero
 8004b60:	0021883a 	mov	r16,zero
 8004b64:	003fb406 	br	8004a38 <__alt_data_end+0xf8004a38>
 8004b68:	113ff804 	addi	r4,r2,-32
 8004b6c:	01c00804 	movi	r7,32
 8004b70:	1908d83a 	srl	r4,r3,r4
 8004b74:	11c04626 	beq	r2,r7,8004c90 <__subdf3+0x58c>
 8004b78:	01c01004 	movi	r7,64
 8004b7c:	3885c83a 	sub	r2,r7,r2
 8004b80:	1884983a 	sll	r2,r3,r2
 8004b84:	118cb03a 	or	r6,r2,r6
 8004b88:	300cc03a 	cmpne	r6,r6,zero
 8004b8c:	310cb03a 	or	r6,r6,r4
 8004b90:	0005883a 	mov	r2,zero
 8004b94:	003f3606 	br	8004870 <__alt_data_end+0xf8004870>
 8004b98:	80002b26 	beq	r16,zero,8004c48 <__subdf3+0x544>
 8004b9c:	0101ffc4 	movi	r4,2047
 8004ba0:	51006926 	beq	r10,r4,8004d48 <__subdf3+0x644>
 8004ba4:	0085c83a 	sub	r2,zero,r2
 8004ba8:	29402034 	orhi	r5,r5,128
 8004bac:	01000e04 	movi	r4,56
 8004bb0:	20807d16 	blt	r4,r2,8004da8 <__subdf3+0x6a4>
 8004bb4:	010007c4 	movi	r4,31
 8004bb8:	2080d916 	blt	r4,r2,8004f20 <__subdf3+0x81c>
 8004bbc:	01000804 	movi	r4,32
 8004bc0:	2089c83a 	sub	r4,r4,r2
 8004bc4:	2912983a 	sll	r9,r5,r4
 8004bc8:	8890d83a 	srl	r8,r17,r2
 8004bcc:	8908983a 	sll	r4,r17,r4
 8004bd0:	2884d83a 	srl	r2,r5,r2
 8004bd4:	4a22b03a 	or	r17,r9,r8
 8004bd8:	2008c03a 	cmpne	r4,r4,zero
 8004bdc:	8922b03a 	or	r17,r17,r4
 8004be0:	3463c83a 	sub	r17,r6,r17
 8004be4:	1885c83a 	sub	r2,r3,r2
 8004be8:	344d803a 	cmpltu	r6,r6,r17
 8004bec:	118bc83a 	sub	r5,r2,r6
 8004bf0:	5021883a 	mov	r16,r10
 8004bf4:	3825883a 	mov	r18,r7
 8004bf8:	003f2206 	br	8004884 <__alt_data_end+0xf8004884>
 8004bfc:	9886b03a 	or	r3,r19,r2
 8004c00:	18001c1e 	bne	r3,zero,8004c74 <__subdf3+0x570>
 8004c04:	0011883a 	mov	r8,zero
 8004c08:	000b883a 	mov	r5,zero
 8004c0c:	0023883a 	mov	r17,zero
 8004c10:	0021883a 	mov	r16,zero
 8004c14:	003f3e06 	br	8004910 <__alt_data_end+0xf8004910>
 8004c18:	010007c4 	movi	r4,31
 8004c1c:	20803c16 	blt	r4,r2,8004d10 <__subdf3+0x60c>
 8004c20:	01000804 	movi	r4,32
 8004c24:	2089c83a 	sub	r4,r4,r2
 8004c28:	1912983a 	sll	r9,r3,r4
 8004c2c:	308ed83a 	srl	r7,r6,r2
 8004c30:	3108983a 	sll	r4,r6,r4
 8004c34:	1884d83a 	srl	r2,r3,r2
 8004c38:	49ceb03a 	or	r7,r9,r7
 8004c3c:	2008c03a 	cmpne	r4,r4,zero
 8004c40:	390eb03a 	or	r7,r7,r4
 8004c44:	003f4706 	br	8004964 <__alt_data_end+0xf8004964>
 8004c48:	2c48b03a 	or	r4,r5,r17
 8004c4c:	20003e26 	beq	r4,zero,8004d48 <__subdf3+0x644>
 8004c50:	0084303a 	nor	r2,zero,r2
 8004c54:	10003a1e 	bne	r2,zero,8004d40 <__subdf3+0x63c>
 8004c58:	3463c83a 	sub	r17,r6,r17
 8004c5c:	194bc83a 	sub	r5,r3,r5
 8004c60:	344d803a 	cmpltu	r6,r6,r17
 8004c64:	298bc83a 	sub	r5,r5,r6
 8004c68:	5021883a 	mov	r16,r10
 8004c6c:	3825883a 	mov	r18,r7
 8004c70:	003f0406 	br	8004884 <__alt_data_end+0xf8004884>
 8004c74:	1023883a 	mov	r17,r2
 8004c78:	003f0706 	br	8004898 <__alt_data_end+0xf8004898>
 8004c7c:	0101ffc4 	movi	r4,2047
 8004c80:	813f331e 	bne	r16,r4,8004950 <__alt_data_end+0xf8004950>
 8004c84:	003ec206 	br	8004790 <__alt_data_end+0xf8004790>
 8004c88:	0027883a 	mov	r19,zero
 8004c8c:	003fb006 	br	8004b50 <__alt_data_end+0xf8004b50>
 8004c90:	0005883a 	mov	r2,zero
 8004c94:	003fbb06 	br	8004b84 <__alt_data_end+0xf8004b84>
 8004c98:	2c44b03a 	or	r2,r5,r17
 8004c9c:	80008b1e 	bne	r16,zero,8004ecc <__subdf3+0x7c8>
 8004ca0:	1000b526 	beq	r2,zero,8004f78 <__subdf3+0x874>
 8004ca4:	1984b03a 	or	r2,r3,r6
 8004ca8:	103eb926 	beq	r2,zero,8004790 <__alt_data_end+0xf8004790>
 8004cac:	3449883a 	add	r4,r6,r17
 8004cb0:	2463803a 	cmpltu	r17,r4,r17
 8004cb4:	194b883a 	add	r5,r3,r5
 8004cb8:	2c4b883a 	add	r5,r5,r17
 8004cbc:	2880202c 	andhi	r2,r5,128
 8004cc0:	2023883a 	mov	r17,r4
 8004cc4:	103f5c26 	beq	r2,zero,8004a38 <__alt_data_end+0xf8004a38>
 8004cc8:	00bfe034 	movhi	r2,65408
 8004ccc:	10bfffc4 	addi	r2,r2,-1
 8004cd0:	4821883a 	mov	r16,r9
 8004cd4:	288a703a 	and	r5,r5,r2
 8004cd8:	003ead06 	br	8004790 <__alt_data_end+0xf8004790>
 8004cdc:	2c44b03a 	or	r2,r5,r17
 8004ce0:	8000291e 	bne	r16,zero,8004d88 <__subdf3+0x684>
 8004ce4:	10004f1e 	bne	r2,zero,8004e24 <__subdf3+0x720>
 8004ce8:	1984b03a 	or	r2,r3,r6
 8004cec:	10000426 	beq	r2,zero,8004d00 <__subdf3+0x5fc>
 8004cf0:	180b883a 	mov	r5,r3
 8004cf4:	3023883a 	mov	r17,r6
 8004cf8:	3825883a 	mov	r18,r7
 8004cfc:	003ea406 	br	8004790 <__alt_data_end+0xf8004790>
 8004d00:	0011883a 	mov	r8,zero
 8004d04:	000b883a 	mov	r5,zero
 8004d08:	0023883a 	mov	r17,zero
 8004d0c:	003f0006 	br	8004910 <__alt_data_end+0xf8004910>
 8004d10:	11fff804 	addi	r7,r2,-32
 8004d14:	19c8d83a 	srl	r4,r3,r7
 8004d18:	01c00804 	movi	r7,32
 8004d1c:	11c07e26 	beq	r2,r7,8004f18 <__subdf3+0x814>
 8004d20:	01c01004 	movi	r7,64
 8004d24:	3885c83a 	sub	r2,r7,r2
 8004d28:	1884983a 	sll	r2,r3,r2
 8004d2c:	118cb03a 	or	r6,r2,r6
 8004d30:	300ec03a 	cmpne	r7,r6,zero
 8004d34:	390eb03a 	or	r7,r7,r4
 8004d38:	0005883a 	mov	r2,zero
 8004d3c:	003f0906 	br	8004964 <__alt_data_end+0xf8004964>
 8004d40:	0101ffc4 	movi	r4,2047
 8004d44:	513f991e 	bne	r10,r4,8004bac <__alt_data_end+0xf8004bac>
 8004d48:	180b883a 	mov	r5,r3
 8004d4c:	3023883a 	mov	r17,r6
 8004d50:	5021883a 	mov	r16,r10
 8004d54:	3825883a 	mov	r18,r7
 8004d58:	003e8d06 	br	8004790 <__alt_data_end+0xf8004790>
 8004d5c:	80001a1e 	bne	r16,zero,8004dc8 <__subdf3+0x6c4>
 8004d60:	2c48b03a 	or	r4,r5,r17
 8004d64:	20005526 	beq	r4,zero,8004ebc <__subdf3+0x7b8>
 8004d68:	0084303a 	nor	r2,zero,r2
 8004d6c:	1000511e 	bne	r2,zero,8004eb4 <__subdf3+0x7b0>
 8004d70:	89a3883a 	add	r17,r17,r6
 8004d74:	194b883a 	add	r5,r3,r5
 8004d78:	898d803a 	cmpltu	r6,r17,r6
 8004d7c:	298b883a 	add	r5,r5,r6
 8004d80:	5021883a 	mov	r16,r10
 8004d84:	003efc06 	br	8004978 <__alt_data_end+0xf8004978>
 8004d88:	1000341e 	bne	r2,zero,8004e5c <__subdf3+0x758>
 8004d8c:	1984b03a 	or	r2,r3,r6
 8004d90:	10006f26 	beq	r2,zero,8004f50 <__subdf3+0x84c>
 8004d94:	180b883a 	mov	r5,r3
 8004d98:	3023883a 	mov	r17,r6
 8004d9c:	3825883a 	mov	r18,r7
 8004da0:	0401ffc4 	movi	r16,2047
 8004da4:	003e7a06 	br	8004790 <__alt_data_end+0xf8004790>
 8004da8:	2c62b03a 	or	r17,r5,r17
 8004dac:	8822c03a 	cmpne	r17,r17,zero
 8004db0:	0005883a 	mov	r2,zero
 8004db4:	003f8a06 	br	8004be0 <__alt_data_end+0xf8004be0>
 8004db8:	3821883a 	mov	r16,r7
 8004dbc:	000b883a 	mov	r5,zero
 8004dc0:	0023883a 	mov	r17,zero
 8004dc4:	003ed206 	br	8004910 <__alt_data_end+0xf8004910>
 8004dc8:	0101ffc4 	movi	r4,2047
 8004dcc:	51003b26 	beq	r10,r4,8004ebc <__subdf3+0x7b8>
 8004dd0:	0085c83a 	sub	r2,zero,r2
 8004dd4:	29402034 	orhi	r5,r5,128
 8004dd8:	01000e04 	movi	r4,56
 8004ddc:	20806216 	blt	r4,r2,8004f68 <__subdf3+0x864>
 8004de0:	010007c4 	movi	r4,31
 8004de4:	20806b16 	blt	r4,r2,8004f94 <__subdf3+0x890>
 8004de8:	01000804 	movi	r4,32
 8004dec:	2089c83a 	sub	r4,r4,r2
 8004df0:	2912983a 	sll	r9,r5,r4
 8004df4:	888ed83a 	srl	r7,r17,r2
 8004df8:	8908983a 	sll	r4,r17,r4
 8004dfc:	2884d83a 	srl	r2,r5,r2
 8004e00:	49e2b03a 	or	r17,r9,r7
 8004e04:	2008c03a 	cmpne	r4,r4,zero
 8004e08:	8922b03a 	or	r17,r17,r4
 8004e0c:	89a3883a 	add	r17,r17,r6
 8004e10:	10c5883a 	add	r2,r2,r3
 8004e14:	898d803a 	cmpltu	r6,r17,r6
 8004e18:	118b883a 	add	r5,r2,r6
 8004e1c:	5021883a 	mov	r16,r10
 8004e20:	003ed506 	br	8004978 <__alt_data_end+0xf8004978>
 8004e24:	1984b03a 	or	r2,r3,r6
 8004e28:	103e5926 	beq	r2,zero,8004790 <__alt_data_end+0xf8004790>
 8004e2c:	8989c83a 	sub	r4,r17,r6
 8004e30:	8911803a 	cmpltu	r8,r17,r4
 8004e34:	28c5c83a 	sub	r2,r5,r3
 8004e38:	1205c83a 	sub	r2,r2,r8
 8004e3c:	1200202c 	andhi	r8,r2,128
 8004e40:	403ef926 	beq	r8,zero,8004a28 <__alt_data_end+0xf8004a28>
 8004e44:	3463c83a 	sub	r17,r6,r17
 8004e48:	194bc83a 	sub	r5,r3,r5
 8004e4c:	344d803a 	cmpltu	r6,r6,r17
 8004e50:	298bc83a 	sub	r5,r5,r6
 8004e54:	3825883a 	mov	r18,r7
 8004e58:	003e4d06 	br	8004790 <__alt_data_end+0xf8004790>
 8004e5c:	1984b03a 	or	r2,r3,r6
 8004e60:	10002b26 	beq	r2,zero,8004f10 <__subdf3+0x80c>
 8004e64:	2808d0fa 	srli	r4,r5,3
 8004e68:	8822d0fa 	srli	r17,r17,3
 8004e6c:	280a977a 	slli	r5,r5,29
 8004e70:	2080022c 	andhi	r2,r4,8
 8004e74:	2c62b03a 	or	r17,r5,r17
 8004e78:	10000826 	beq	r2,zero,8004e9c <__subdf3+0x798>
 8004e7c:	1810d0fa 	srli	r8,r3,3
 8004e80:	4080022c 	andhi	r2,r8,8
 8004e84:	1000051e 	bne	r2,zero,8004e9c <__subdf3+0x798>
 8004e88:	300cd0fa 	srli	r6,r6,3
 8004e8c:	1804977a 	slli	r2,r3,29
 8004e90:	4009883a 	mov	r4,r8
 8004e94:	3825883a 	mov	r18,r7
 8004e98:	11a2b03a 	or	r17,r2,r6
 8004e9c:	880ad77a 	srli	r5,r17,29
 8004ea0:	200890fa 	slli	r4,r4,3
 8004ea4:	882290fa 	slli	r17,r17,3
 8004ea8:	0401ffc4 	movi	r16,2047
 8004eac:	290ab03a 	or	r5,r5,r4
 8004eb0:	003e3706 	br	8004790 <__alt_data_end+0xf8004790>
 8004eb4:	0101ffc4 	movi	r4,2047
 8004eb8:	513fc71e 	bne	r10,r4,8004dd8 <__alt_data_end+0xf8004dd8>
 8004ebc:	180b883a 	mov	r5,r3
 8004ec0:	3023883a 	mov	r17,r6
 8004ec4:	5021883a 	mov	r16,r10
 8004ec8:	003e3106 	br	8004790 <__alt_data_end+0xf8004790>
 8004ecc:	10002d26 	beq	r2,zero,8004f84 <__subdf3+0x880>
 8004ed0:	1984b03a 	or	r2,r3,r6
 8004ed4:	10000e26 	beq	r2,zero,8004f10 <__subdf3+0x80c>
 8004ed8:	2808d0fa 	srli	r4,r5,3
 8004edc:	8822d0fa 	srli	r17,r17,3
 8004ee0:	280a977a 	slli	r5,r5,29
 8004ee4:	2080022c 	andhi	r2,r4,8
 8004ee8:	2c62b03a 	or	r17,r5,r17
 8004eec:	103feb26 	beq	r2,zero,8004e9c <__alt_data_end+0xf8004e9c>
 8004ef0:	180ed0fa 	srli	r7,r3,3
 8004ef4:	3880022c 	andhi	r2,r7,8
 8004ef8:	103fe81e 	bne	r2,zero,8004e9c <__alt_data_end+0xf8004e9c>
 8004efc:	300cd0fa 	srli	r6,r6,3
 8004f00:	1804977a 	slli	r2,r3,29
 8004f04:	3809883a 	mov	r4,r7
 8004f08:	11a2b03a 	or	r17,r2,r6
 8004f0c:	003fe306 	br	8004e9c <__alt_data_end+0xf8004e9c>
 8004f10:	0401ffc4 	movi	r16,2047
 8004f14:	003e1e06 	br	8004790 <__alt_data_end+0xf8004790>
 8004f18:	0005883a 	mov	r2,zero
 8004f1c:	003f8306 	br	8004d2c <__alt_data_end+0xf8004d2c>
 8004f20:	113ff804 	addi	r4,r2,-32
 8004f24:	02000804 	movi	r8,32
 8004f28:	2908d83a 	srl	r4,r5,r4
 8004f2c:	12002526 	beq	r2,r8,8004fc4 <__subdf3+0x8c0>
 8004f30:	02001004 	movi	r8,64
 8004f34:	4085c83a 	sub	r2,r8,r2
 8004f38:	288a983a 	sll	r5,r5,r2
 8004f3c:	2c62b03a 	or	r17,r5,r17
 8004f40:	8822c03a 	cmpne	r17,r17,zero
 8004f44:	8922b03a 	or	r17,r17,r4
 8004f48:	0005883a 	mov	r2,zero
 8004f4c:	003f2406 	br	8004be0 <__alt_data_end+0xf8004be0>
 8004f50:	01402034 	movhi	r5,128
 8004f54:	0011883a 	mov	r8,zero
 8004f58:	297fffc4 	addi	r5,r5,-1
 8004f5c:	047ffe04 	movi	r17,-8
 8004f60:	0401ffc4 	movi	r16,2047
 8004f64:	003e6a06 	br	8004910 <__alt_data_end+0xf8004910>
 8004f68:	2c62b03a 	or	r17,r5,r17
 8004f6c:	8822c03a 	cmpne	r17,r17,zero
 8004f70:	0005883a 	mov	r2,zero
 8004f74:	003fa506 	br	8004e0c <__alt_data_end+0xf8004e0c>
 8004f78:	180b883a 	mov	r5,r3
 8004f7c:	3023883a 	mov	r17,r6
 8004f80:	003e0306 	br	8004790 <__alt_data_end+0xf8004790>
 8004f84:	180b883a 	mov	r5,r3
 8004f88:	3023883a 	mov	r17,r6
 8004f8c:	0401ffc4 	movi	r16,2047
 8004f90:	003dff06 	br	8004790 <__alt_data_end+0xf8004790>
 8004f94:	113ff804 	addi	r4,r2,-32
 8004f98:	01c00804 	movi	r7,32
 8004f9c:	2908d83a 	srl	r4,r5,r4
 8004fa0:	11c00a26 	beq	r2,r7,8004fcc <__subdf3+0x8c8>
 8004fa4:	01c01004 	movi	r7,64
 8004fa8:	3885c83a 	sub	r2,r7,r2
 8004fac:	288a983a 	sll	r5,r5,r2
 8004fb0:	2c62b03a 	or	r17,r5,r17
 8004fb4:	8822c03a 	cmpne	r17,r17,zero
 8004fb8:	8922b03a 	or	r17,r17,r4
 8004fbc:	0005883a 	mov	r2,zero
 8004fc0:	003f9206 	br	8004e0c <__alt_data_end+0xf8004e0c>
 8004fc4:	000b883a 	mov	r5,zero
 8004fc8:	003fdc06 	br	8004f3c <__alt_data_end+0xf8004f3c>
 8004fcc:	000b883a 	mov	r5,zero
 8004fd0:	003ff706 	br	8004fb0 <__alt_data_end+0xf8004fb0>

08004fd4 <__fixdfsi>:
 8004fd4:	2806d53a 	srli	r3,r5,20
 8004fd8:	00800434 	movhi	r2,16
 8004fdc:	10bfffc4 	addi	r2,r2,-1
 8004fe0:	18c1ffcc 	andi	r3,r3,2047
 8004fe4:	0180ff84 	movi	r6,1022
 8004fe8:	2884703a 	and	r2,r5,r2
 8004fec:	280ad7fa 	srli	r5,r5,31
 8004ff0:	30c0130e 	bge	r6,r3,8005040 <__fixdfsi+0x6c>
 8004ff4:	01810744 	movi	r6,1053
 8004ff8:	30c00d16 	blt	r6,r3,8005030 <__fixdfsi+0x5c>
 8004ffc:	01810cc4 	movi	r6,1075
 8005000:	30cdc83a 	sub	r6,r6,r3
 8005004:	01c007c4 	movi	r7,31
 8005008:	10800434 	orhi	r2,r2,16
 800500c:	39800e0e 	bge	r7,r6,8005048 <__fixdfsi+0x74>
 8005010:	010104c4 	movi	r4,1043
 8005014:	20c7c83a 	sub	r3,r4,r3
 8005018:	10c6d83a 	srl	r3,r2,r3
 800501c:	29403fcc 	andi	r5,r5,255
 8005020:	0145c83a 	sub	r2,zero,r5
 8005024:	1884f03a 	xor	r2,r3,r2
 8005028:	1145883a 	add	r2,r2,r5
 800502c:	f800283a 	ret
 8005030:	00a00034 	movhi	r2,32768
 8005034:	10bfffc4 	addi	r2,r2,-1
 8005038:	2885883a 	add	r2,r5,r2
 800503c:	f800283a 	ret
 8005040:	0005883a 	mov	r2,zero
 8005044:	f800283a 	ret
 8005048:	18fefb44 	addi	r3,r3,-1043
 800504c:	2188d83a 	srl	r4,r4,r6
 8005050:	10c6983a 	sll	r3,r2,r3
 8005054:	20c6b03a 	or	r3,r4,r3
 8005058:	003ff006 	br	800501c <__alt_data_end+0xf800501c>

0800505c <__floatsidf>:
 800505c:	defffd04 	addi	sp,sp,-12
 8005060:	dc400115 	stw	r17,4(sp)
 8005064:	dfc00215 	stw	ra,8(sp)
 8005068:	dc000015 	stw	r16,0(sp)
 800506c:	2023883a 	mov	r17,r4
 8005070:	20001426 	beq	r4,zero,80050c4 <__floatsidf+0x68>
 8005074:	2020d7fa 	srli	r16,r4,31
 8005078:	80000126 	beq	r16,zero,8005080 <__floatsidf+0x24>
 800507c:	0123c83a 	sub	r17,zero,r4
 8005080:	8809883a 	mov	r4,r17
 8005084:	800512c0 	call	800512c <__clzsi2>
 8005088:	01410784 	movi	r5,1054
 800508c:	00c00284 	movi	r3,10
 8005090:	288bc83a 	sub	r5,r5,r2
 8005094:	18801c16 	blt	r3,r2,8005108 <__floatsidf+0xac>
 8005098:	00c002c4 	movi	r3,11
 800509c:	1887c83a 	sub	r3,r3,r2
 80050a0:	88c8d83a 	srl	r4,r17,r3
 80050a4:	00c00434 	movhi	r3,16
 80050a8:	18ffffc4 	addi	r3,r3,-1
 80050ac:	10800544 	addi	r2,r2,21
 80050b0:	20c8703a 	and	r4,r4,r3
 80050b4:	8884983a 	sll	r2,r17,r2
 80050b8:	28c1ffcc 	andi	r3,r5,2047
 80050bc:	800d883a 	mov	r6,r16
 80050c0:	00000406 	br	80050d4 <__floatsidf+0x78>
 80050c4:	000d883a 	mov	r6,zero
 80050c8:	0007883a 	mov	r3,zero
 80050cc:	0009883a 	mov	r4,zero
 80050d0:	0005883a 	mov	r2,zero
 80050d4:	180a953a 	slli	r5,r3,20
 80050d8:	31803fcc 	andi	r6,r6,255
 80050dc:	00c00434 	movhi	r3,16
 80050e0:	300c97fa 	slli	r6,r6,31
 80050e4:	18ffffc4 	addi	r3,r3,-1
 80050e8:	20c6703a 	and	r3,r4,r3
 80050ec:	1946b03a 	or	r3,r3,r5
 80050f0:	1986b03a 	or	r3,r3,r6
 80050f4:	dfc00217 	ldw	ra,8(sp)
 80050f8:	dc400117 	ldw	r17,4(sp)
 80050fc:	dc000017 	ldw	r16,0(sp)
 8005100:	dec00304 	addi	sp,sp,12
 8005104:	f800283a 	ret
 8005108:	10fffd44 	addi	r3,r2,-11
 800510c:	88c8983a 	sll	r4,r17,r3
 8005110:	00800434 	movhi	r2,16
 8005114:	10bfffc4 	addi	r2,r2,-1
 8005118:	2088703a 	and	r4,r4,r2
 800511c:	28c1ffcc 	andi	r3,r5,2047
 8005120:	800d883a 	mov	r6,r16
 8005124:	0005883a 	mov	r2,zero
 8005128:	003fea06 	br	80050d4 <__alt_data_end+0xf80050d4>

0800512c <__clzsi2>:
 800512c:	00bfffd4 	movui	r2,65535
 8005130:	11000b36 	bltu	r2,r4,8005160 <__clzsi2+0x34>
 8005134:	00803fc4 	movi	r2,255
 8005138:	1100122e 	bgeu	r2,r4,8005184 <__clzsi2+0x58>
 800513c:	00c00204 	movi	r3,8
 8005140:	01400604 	movi	r5,24
 8005144:	20c8d83a 	srl	r4,r4,r3
 8005148:	00820034 	movhi	r2,2048
 800514c:	1099b504 	addi	r2,r2,26324
 8005150:	1109883a 	add	r4,r2,r4
 8005154:	20800003 	ldbu	r2,0(r4)
 8005158:	2885c83a 	sub	r2,r5,r2
 800515c:	f800283a 	ret
 8005160:	00804034 	movhi	r2,256
 8005164:	10bfffc4 	addi	r2,r2,-1
 8005168:	11000336 	bltu	r2,r4,8005178 <__clzsi2+0x4c>
 800516c:	00c00404 	movi	r3,16
 8005170:	180b883a 	mov	r5,r3
 8005174:	003ff306 	br	8005144 <__alt_data_end+0xf8005144>
 8005178:	00c00604 	movi	r3,24
 800517c:	01400204 	movi	r5,8
 8005180:	003ff006 	br	8005144 <__alt_data_end+0xf8005144>
 8005184:	0007883a 	mov	r3,zero
 8005188:	01400804 	movi	r5,32
 800518c:	003fed06 	br	8005144 <__alt_data_end+0xf8005144>

08005190 <__errno>:
 8005190:	00820074 	movhi	r2,2049
 8005194:	10993804 	addi	r2,r2,25824
 8005198:	10800017 	ldw	r2,0(r2)
 800519c:	f800283a 	ret

080051a0 <_printf_r>:
 80051a0:	defffd04 	addi	sp,sp,-12
 80051a4:	dfc00015 	stw	ra,0(sp)
 80051a8:	d9800115 	stw	r6,4(sp)
 80051ac:	d9c00215 	stw	r7,8(sp)
 80051b0:	20c00217 	ldw	r3,8(r4)
 80051b4:	280d883a 	mov	r6,r5
 80051b8:	01420034 	movhi	r5,2048
 80051bc:	29562b04 	addi	r5,r5,22700
 80051c0:	19400115 	stw	r5,4(r3)
 80051c4:	21400217 	ldw	r5,8(r4)
 80051c8:	d9c00104 	addi	r7,sp,4
 80051cc:	80053440 	call	8005344 <___vfprintf_internal_r>
 80051d0:	dfc00017 	ldw	ra,0(sp)
 80051d4:	dec00304 	addi	sp,sp,12
 80051d8:	f800283a 	ret

080051dc <printf>:
 80051dc:	defffc04 	addi	sp,sp,-16
 80051e0:	dfc00015 	stw	ra,0(sp)
 80051e4:	d9400115 	stw	r5,4(sp)
 80051e8:	d9800215 	stw	r6,8(sp)
 80051ec:	d9c00315 	stw	r7,12(sp)
 80051f0:	00820074 	movhi	r2,2049
 80051f4:	10993804 	addi	r2,r2,25824
 80051f8:	10800017 	ldw	r2,0(r2)
 80051fc:	200b883a 	mov	r5,r4
 8005200:	01020034 	movhi	r4,2048
 8005204:	10c00217 	ldw	r3,8(r2)
 8005208:	21162b04 	addi	r4,r4,22700
 800520c:	d9800104 	addi	r6,sp,4
 8005210:	19000115 	stw	r4,4(r3)
 8005214:	11000217 	ldw	r4,8(r2)
 8005218:	80058880 	call	8005888 <__vfprintf_internal>
 800521c:	dfc00017 	ldw	ra,0(sp)
 8005220:	dec00404 	addi	sp,sp,16
 8005224:	f800283a 	ret

08005228 <_puts_r>:
 8005228:	defffd04 	addi	sp,sp,-12
 800522c:	dc000015 	stw	r16,0(sp)
 8005230:	2021883a 	mov	r16,r4
 8005234:	2809883a 	mov	r4,r5
 8005238:	dfc00215 	stw	ra,8(sp)
 800523c:	dc400115 	stw	r17,4(sp)
 8005240:	2823883a 	mov	r17,r5
 8005244:	80052bc0 	call	80052bc <strlen>
 8005248:	81400217 	ldw	r5,8(r16)
 800524c:	00c20034 	movhi	r3,2048
 8005250:	18d62b04 	addi	r3,r3,22700
 8005254:	28c00115 	stw	r3,4(r5)
 8005258:	8009883a 	mov	r4,r16
 800525c:	880d883a 	mov	r6,r17
 8005260:	100f883a 	mov	r7,r2
 8005264:	80058ac0 	call	80058ac <__sfvwrite_small_dev>
 8005268:	00ffffc4 	movi	r3,-1
 800526c:	10c00926 	beq	r2,r3,8005294 <_puts_r+0x6c>
 8005270:	81400217 	ldw	r5,8(r16)
 8005274:	01820034 	movhi	r6,2048
 8005278:	8009883a 	mov	r4,r16
 800527c:	28800117 	ldw	r2,4(r5)
 8005280:	3199f504 	addi	r6,r6,26580
 8005284:	01c00044 	movi	r7,1
 8005288:	103ee83a 	callr	r2
 800528c:	10bfffe0 	cmpeqi	r2,r2,-1
 8005290:	0085c83a 	sub	r2,zero,r2
 8005294:	dfc00217 	ldw	ra,8(sp)
 8005298:	dc400117 	ldw	r17,4(sp)
 800529c:	dc000017 	ldw	r16,0(sp)
 80052a0:	dec00304 	addi	sp,sp,12
 80052a4:	f800283a 	ret

080052a8 <puts>:
 80052a8:	00820074 	movhi	r2,2049
 80052ac:	10993804 	addi	r2,r2,25824
 80052b0:	200b883a 	mov	r5,r4
 80052b4:	11000017 	ldw	r4,0(r2)
 80052b8:	80052281 	jmpi	8005228 <_puts_r>

080052bc <strlen>:
 80052bc:	2005883a 	mov	r2,r4
 80052c0:	10c00007 	ldb	r3,0(r2)
 80052c4:	18000226 	beq	r3,zero,80052d0 <strlen+0x14>
 80052c8:	10800044 	addi	r2,r2,1
